
enclave.signed.so:     file format elf64-x86-64


Disassembly of section .plt:

0000000000001000 <.plt>:
    1000:	ff 35 ba ff 00 00    	push   0xffba(%rip)        # 10fc0 <_GLOBAL_OFFSET_TABLE_+0x8>
    1006:	ff 25 bc ff 00 00    	jmp    *0xffbc(%rip)        # 10fc8 <_GLOBAL_OFFSET_TABLE_+0x10>
    100c:	0f 1f 40 00          	nopl   0x0(%rax)

Disassembly of section .plt.got:

0000000000001010 <_Z9pcl_entryPvS_@plt>:
    1010:	ff 25 ba ff 00 00    	jmp    *0xffba(%rip)        # 10fd0 <_Z9pcl_entryPvS_@Base>
    1016:	66 90                	xchg   %ax,%ax

0000000000001018 <ippcpSetCpuFeatures@plt>:
    1018:	ff 25 d2 ff 00 00    	jmp    *0xffd2(%rip)        # 10ff0 <ippcpSetCpuFeatures@Base>
    101e:	66 90                	xchg   %ax,%ax

Disassembly of section .text:

0000000000001020 <trts_access_version_dummy1>:
    1020:	f3 0f 1e fa          	endbr64
    1024:	48 8d 05 05 02 01 00 	lea    0x10205(%rip),%rax        # 11230 <sgx_trts_version>
    102b:	c6 00 73             	movb   $0x73,(%rax)
    102e:	c3                   	ret
    102f:	90                   	nop

0000000000001030 <tstdc_access_version_dummy1>:
    1030:	f3 0f 1e fa          	endbr64
    1034:	c6 05 a5 20 01 00 73 	movb   $0x73,0x120a5(%rip)        # 130e0 <sgx_tstdc_version>
    103b:	48 8d 05 9e 20 01 00 	lea    0x1209e(%rip),%rax        # 130e0 <sgx_tstdc_version>
    1042:	c3                   	ret
    1043:	66 2e 0f 1f 84 00 00 	cs nopw 0x0(%rax,%rax,1)
    104a:	00 00 00 
    104d:	0f 1f 00             	nopl   (%rax)

0000000000001050 <tcrypto_access_version_dummy1>:
    1050:	f3 0f 1e fa          	endbr64
    1054:	c6 05 a5 20 01 00 73 	movb   $0x73,0x120a5(%rip)        # 13100 <sgx_tcrypto_version>
    105b:	48 8d 05 9e 20 01 00 	lea    0x1209e(%rip),%rax        # 13100 <sgx_tcrypto_version>
    1062:	c3                   	ret
    1063:	66 2e 0f 1f 84 00 00 	cs nopw 0x0(%rax,%rax,1)
    106a:	00 00 00 
    106d:	0f 1f 00             	nopl   (%rax)

0000000000001070 <tservice_access_version_dummy1>:
    1070:	f3 0f 1e fa          	endbr64
    1074:	c6 05 a5 20 01 00 73 	movb   $0x73,0x120a5(%rip)        # 13120 <sgx_tservice_version>
    107b:	48 8d 05 9e 20 01 00 	lea    0x1209e(%rip),%rax        # 13120 <sgx_tservice_version>
    1082:	c3                   	ret

0000000000001083 <sgx_enclave_add>:
    1083:	f3 0f 1e fa          	endbr64
    1087:	55                   	push   %rbp
    1088:	48 89 e5             	mov    %rsp,%rbp
    108b:	48 83 ec 30          	sub    $0x30,%rsp
    108f:	48 89 7d d8          	mov    %rdi,-0x28(%rbp)
    1093:	48 83 7d d8 00       	cmpq   $0x0,-0x28(%rbp)
    1098:	74 15                	je     10af <sgx_enclave_add+0x2c>
    109a:	48 8b 45 d8          	mov    -0x28(%rbp),%rax
    109e:	be 0c 00 00 00       	mov    $0xc,%esi
    10a3:	48 89 c7             	mov    %rax,%rdi
    10a6:	e8 f5 19 00 00       	call   2aa0 <sgx_is_outside_enclave>
    10ab:	85 c0                	test   %eax,%eax
    10ad:	75 07                	jne    10b6 <sgx_enclave_add+0x33>
    10af:	b8 02 00 00 00       	mov    $0x2,%eax
    10b4:	eb 74                	jmp    112a <sgx_enclave_add+0xa7>
    10b6:	0f ae e8             	lfence
    10b9:	48 8b 45 d8          	mov    -0x28(%rbp),%rax
    10bd:	48 89 45 e8          	mov    %rax,-0x18(%rbp)
    10c1:	48 8b 55 e8          	mov    -0x18(%rbp),%rdx
    10c5:	48 8d 45 f4          	lea    -0xc(%rbp),%rax
    10c9:	b9 0c 00 00 00       	mov    $0xc,%ecx
    10ce:	be 0c 00 00 00       	mov    $0xc,%esi
    10d3:	48 89 c7             	mov    %rax,%rdi
    10d6:	e8 85 a5 00 00       	call   b660 <memcpy_s>
    10db:	85 c0                	test   %eax,%eax
    10dd:	74 07                	je     10e6 <sgx_enclave_add+0x63>
    10df:	b8 01 00 00 00       	mov    $0x1,%eax
    10e4:	eb 44                	jmp    112a <sgx_enclave_add+0xa7>
    10e6:	c7 45 e4 00 00 00 00 	movl   $0x0,-0x1c(%rbp)
    10ed:	8b 55 fc             	mov    -0x4(%rbp),%edx
    10f0:	8b 45 f8             	mov    -0x8(%rbp),%eax
    10f3:	89 d6                	mov    %edx,%esi
    10f5:	89 c7                	mov    %eax,%edi
    10f7:	e8 c0 01 00 00       	call   12bc <enclave_add>
    10fc:	89 45 e0             	mov    %eax,-0x20(%rbp)
    10ff:	48 8b 45 e8          	mov    -0x18(%rbp),%rax
    1103:	48 8d 55 e0          	lea    -0x20(%rbp),%rdx
    1107:	b9 04 00 00 00       	mov    $0x4,%ecx
    110c:	be 04 00 00 00       	mov    $0x4,%esi
    1111:	48 89 c7             	mov    %rax,%rdi
    1114:	e8 c7 a5 00 00       	call   b6e0 <memcpy_verw_s>
    1119:	85 c0                	test   %eax,%eax
    111b:	74 09                	je     1126 <sgx_enclave_add+0xa3>
    111d:	c7 45 e4 01 00 00 00 	movl   $0x1,-0x1c(%rbp)
    1124:	eb 01                	jmp    1127 <sgx_enclave_add+0xa4>
    1126:	90                   	nop
    1127:	8b 45 e4             	mov    -0x1c(%rbp),%eax
    112a:	c9                   	leave
    112b:	c3                   	ret

000000000000112c <host_print>:
    112c:	f3 0f 1e fa          	endbr64
    1130:	55                   	push   %rbp
    1131:	48 89 e5             	mov    %rsp,%rbp
    1134:	48 83 ec 40          	sub    $0x40,%rsp
    1138:	48 89 7d c8          	mov    %rdi,-0x38(%rbp)
    113c:	c7 45 dc 00 00 00 00 	movl   $0x0,-0x24(%rbp)
    1143:	48 83 7d c8 00       	cmpq   $0x0,-0x38(%rbp)
    1148:	74 12                	je     115c <host_print+0x30>
    114a:	48 8b 45 c8          	mov    -0x38(%rbp),%rax
    114e:	48 89 c7             	mov    %rax,%rdi
    1151:	e8 ba a3 00 00       	call   b510 <strlen>
    1156:	48 83 c0 01          	add    $0x1,%rax
    115a:	eb 05                	jmp    1161 <host_print+0x35>
    115c:	b8 00 00 00 00       	mov    $0x0,%eax
    1161:	48 89 45 e8          	mov    %rax,-0x18(%rbp)
    1165:	48 c7 45 f0 00 00 00 	movq   $0x0,-0x10(%rbp)
    116c:	00 
    116d:	48 c7 45 f8 08 00 00 	movq   $0x8,-0x8(%rbp)
    1174:	00 
    1175:	48 c7 45 e0 00 00 00 	movq   $0x0,-0x20(%rbp)
    117c:	00 
    117d:	48 83 7d c8 00       	cmpq   $0x0,-0x38(%rbp)
    1182:	74 21                	je     11a5 <host_print+0x79>
    1184:	48 8b 55 e8          	mov    -0x18(%rbp),%rdx
    1188:	48 8b 45 c8          	mov    -0x38(%rbp),%rax
    118c:	48 89 d6             	mov    %rdx,%rsi
    118f:	48 89 c7             	mov    %rax,%rdi
    1192:	e8 a9 18 00 00       	call   2a40 <sgx_is_within_enclave>
    1197:	85 c0                	test   %eax,%eax
    1199:	75 0a                	jne    11a5 <host_print+0x79>
    119b:	b8 02 00 00 00       	mov    $0x2,%eax
    11a0:	e9 15 01 00 00       	jmp    12ba <host_print+0x18e>
    11a5:	48 83 7d c8 00       	cmpq   $0x0,-0x38(%rbp)
    11aa:	74 06                	je     11b2 <host_print+0x86>
    11ac:	48 8b 45 e8          	mov    -0x18(%rbp),%rax
    11b0:	eb 05                	jmp    11b7 <host_print+0x8b>
    11b2:	b8 00 00 00 00       	mov    $0x0,%eax
    11b7:	48 01 45 f8          	add    %rax,-0x8(%rbp)
    11bb:	48 83 7d c8 00       	cmpq   $0x0,-0x38(%rbp)
    11c0:	74 06                	je     11c8 <host_print+0x9c>
    11c2:	48 8b 45 e8          	mov    -0x18(%rbp),%rax
    11c6:	eb 05                	jmp    11cd <host_print+0xa1>
    11c8:	b8 00 00 00 00       	mov    $0x0,%eax
    11cd:	48 39 45 f8          	cmp    %rax,-0x8(%rbp)
    11d1:	73 0a                	jae    11dd <host_print+0xb1>
    11d3:	b8 02 00 00 00       	mov    $0x2,%eax
    11d8:	e9 dd 00 00 00       	jmp    12ba <host_print+0x18e>
    11dd:	48 8b 45 f8          	mov    -0x8(%rbp),%rax
    11e1:	48 89 c7             	mov    %rax,%rdi
    11e4:	e8 17 19 00 00       	call   2b00 <sgx_ocalloc>
    11e9:	48 89 45 e0          	mov    %rax,-0x20(%rbp)
    11ed:	48 8b 45 e0          	mov    -0x20(%rbp),%rax
    11f1:	48 85 c0             	test   %rax,%rax
    11f4:	75 0f                	jne    1205 <host_print+0xd9>
    11f6:	e8 e5 19 00 00       	call   2be0 <sgx_ocfree>
    11fb:	b8 01 00 00 00       	mov    $0x1,%eax
    1200:	e9 b5 00 00 00       	jmp    12ba <host_print+0x18e>
    1205:	48 8b 45 e0          	mov    -0x20(%rbp),%rax
    1209:	48 89 45 f0          	mov    %rax,-0x10(%rbp)
    120d:	48 8b 45 e0          	mov    -0x20(%rbp),%rax
    1211:	48 83 c0 08          	add    $0x8,%rax
    1215:	48 89 45 e0          	mov    %rax,-0x20(%rbp)
    1219:	48 83 6d f8 08       	subq   $0x8,-0x8(%rbp)
    121e:	48 83 7d c8 00       	cmpq   $0x0,-0x38(%rbp)
    1223:	74 6e                	je     1293 <host_print+0x167>
    1225:	48 8b 45 f0          	mov    -0x10(%rbp),%rax
    1229:	48 8d 55 e0          	lea    -0x20(%rbp),%rdx
    122d:	b9 08 00 00 00       	mov    $0x8,%ecx
    1232:	be 08 00 00 00       	mov    $0x8,%esi
    1237:	48 89 c7             	mov    %rax,%rdi
    123a:	e8 a1 a4 00 00       	call   b6e0 <memcpy_verw_s>
    123f:	85 c0                	test   %eax,%eax
    1241:	74 0c                	je     124f <host_print+0x123>
    1243:	e8 98 19 00 00       	call   2be0 <sgx_ocfree>
    1248:	b8 01 00 00 00       	mov    $0x1,%eax
    124d:	eb 6b                	jmp    12ba <host_print+0x18e>
    124f:	48 8b 45 e0          	mov    -0x20(%rbp),%rax
    1253:	48 8b 4d e8          	mov    -0x18(%rbp),%rcx
    1257:	48 8b 55 c8          	mov    -0x38(%rbp),%rdx
    125b:	48 8b 75 f8          	mov    -0x8(%rbp),%rsi
    125f:	48 89 c7             	mov    %rax,%rdi
    1262:	e8 79 a4 00 00       	call   b6e0 <memcpy_verw_s>
    1267:	85 c0                	test   %eax,%eax
    1269:	74 0c                	je     1277 <host_print+0x14b>
    126b:	e8 70 19 00 00       	call   2be0 <sgx_ocfree>
    1270:	b8 01 00 00 00       	mov    $0x1,%eax
    1275:	eb 43                	jmp    12ba <host_print+0x18e>
    1277:	48 8b 45 e0          	mov    -0x20(%rbp),%rax
    127b:	48 89 c2             	mov    %rax,%rdx
    127e:	48 8b 45 e8          	mov    -0x18(%rbp),%rax
    1282:	48 01 d0             	add    %rdx,%rax
    1285:	48 89 45 e0          	mov    %rax,-0x20(%rbp)
    1289:	48 8b 45 e8          	mov    -0x18(%rbp),%rax
    128d:	48 29 45 f8          	sub    %rax,-0x8(%rbp)
    1291:	eb 0b                	jmp    129e <host_print+0x172>
    1293:	48 8b 45 f0          	mov    -0x10(%rbp),%rax
    1297:	48 c7 00 00 00 00 00 	movq   $0x0,(%rax)
    129e:	48 8b 45 f0          	mov    -0x10(%rbp),%rax
    12a2:	48 89 c6             	mov    %rax,%rsi
    12a5:	bf 00 00 00 00       	mov    $0x0,%edi
    12aa:	e8 c1 2b 00 00       	call   3e70 <sgx_ocall>
    12af:	89 45 dc             	mov    %eax,-0x24(%rbp)
    12b2:	e8 29 19 00 00       	call   2be0 <sgx_ocfree>
    12b7:	8b 45 dc             	mov    -0x24(%rbp),%eax
    12ba:	c9                   	leave
    12bb:	c3                   	ret

00000000000012bc <enclave_add>:
    12bc:	f3 0f 1e fa          	endbr64
    12c0:	55                   	push   %rbp
    12c1:	48 89 e5             	mov    %rsp,%rbp
    12c4:	48 83 c4 80          	add    $0xffffffffffffff80,%rsp
    12c8:	89 7d 8c             	mov    %edi,-0x74(%rbp)
    12cb:	89 75 88             	mov    %esi,-0x78(%rbp)
    12ce:	64 48 8b 04 25 28 00 	mov    %fs:0x28,%rax
    12d5:	00 00 
    12d7:	48 89 45 f8          	mov    %rax,-0x8(%rbp)
    12db:	31 c0                	xor    %eax,%eax
    12dd:	48 b8 48 65 6c 6c 6f 	movabs $0x7266206f6c6c6548,%rax
    12e4:	20 66 72 
    12e7:	48 ba 6f 6d 20 65 6e 	movabs $0x616c636e65206d6f,%rdx
    12ee:	63 6c 61 
    12f1:	48 89 45 90          	mov    %rax,-0x70(%rbp)
    12f5:	48 89 55 98          	mov    %rdx,-0x68(%rbp)
    12f9:	48 c7 45 a0 76 65 00 	movq   $0x6576,-0x60(%rbp)
    1300:	00 
    1301:	48 c7 45 a8 00 00 00 	movq   $0x0,-0x58(%rbp)
    1308:	00 
    1309:	48 c7 45 b0 00 00 00 	movq   $0x0,-0x50(%rbp)
    1310:	00 
    1311:	48 c7 45 b8 00 00 00 	movq   $0x0,-0x48(%rbp)
    1318:	00 
    1319:	48 c7 45 c0 00 00 00 	movq   $0x0,-0x40(%rbp)
    1320:	00 
    1321:	48 c7 45 c8 00 00 00 	movq   $0x0,-0x38(%rbp)
    1328:	00 
    1329:	48 c7 45 d0 00 00 00 	movq   $0x0,-0x30(%rbp)
    1330:	00 
    1331:	48 c7 45 d8 00 00 00 	movq   $0x0,-0x28(%rbp)
    1338:	00 
    1339:	48 c7 45 e0 00 00 00 	movq   $0x0,-0x20(%rbp)
    1340:	00 
    1341:	48 c7 45 e8 00 00 00 	movq   $0x0,-0x18(%rbp)
    1348:	00 
    1349:	c7 45 f0 00 00 00 00 	movl   $0x0,-0x10(%rbp)
    1350:	48 8d 45 90          	lea    -0x70(%rbp),%rax
    1354:	48 89 c7             	mov    %rax,%rdi
    1357:	e8 d0 fd ff ff       	call   112c <host_print>
    135c:	8b 55 8c             	mov    -0x74(%rbp),%edx
    135f:	8b 45 88             	mov    -0x78(%rbp),%eax
    1362:	01 d0                	add    %edx,%eax
    1364:	48 8b 55 f8          	mov    -0x8(%rbp),%rdx
    1368:	64 48 2b 14 25 28 00 	sub    %fs:0x28,%rdx
    136f:	00 00 
    1371:	74 05                	je     1378 <enclave_add+0xbc>
    1373:	e8 a8 a1 00 00       	call   b520 <__stack_chk_fail>
    1378:	c9                   	leave
    1379:	c3                   	ret
    137a:	66 0f 1f 44 00 00    	nopw   0x0(%rax,%rax,1)

0000000000001380 <register_value_select>:
    1380:	89 f1                	mov    %esi,%ecx
    1382:	31 c0                	xor    %eax,%eax
    1384:	48 83 f9 00          	cmp    $0x0,%rcx
    1388:	48 0f 44 07          	cmove  (%rdi),%rax
    138c:	48 83 f9 01          	cmp    $0x1,%rcx
    1390:	48 0f 44 47 08       	cmove  0x8(%rdi),%rax
    1395:	48 83 f9 02          	cmp    $0x2,%rcx
    1399:	48 0f 44 47 10       	cmove  0x10(%rdi),%rax
    139e:	48 83 f9 03          	cmp    $0x3,%rcx
    13a2:	48 0f 44 47 18       	cmove  0x18(%rdi),%rax
    13a7:	48 83 f9 04          	cmp    $0x4,%rcx
    13ab:	48 0f 44 47 20       	cmove  0x20(%rdi),%rax
    13b0:	48 83 f9 05          	cmp    $0x5,%rcx
    13b4:	48 0f 44 47 28       	cmove  0x28(%rdi),%rax
    13b9:	48 83 f9 06          	cmp    $0x6,%rcx
    13bd:	48 0f 44 47 30       	cmove  0x30(%rdi),%rax
    13c2:	48 83 f9 07          	cmp    $0x7,%rcx
    13c6:	48 0f 44 47 38       	cmove  0x38(%rdi),%rax
    13cb:	48 83 f9 08          	cmp    $0x8,%rcx
    13cf:	48 0f 44 47 40       	cmove  0x40(%rdi),%rax
    13d4:	48 83 f9 09          	cmp    $0x9,%rcx
    13d8:	48 0f 44 47 48       	cmove  0x48(%rdi),%rax
    13dd:	48 83 f9 0a          	cmp    $0xa,%rcx
    13e1:	48 0f 44 47 50       	cmove  0x50(%rdi),%rax
    13e6:	48 83 f9 0b          	cmp    $0xb,%rcx
    13ea:	48 0f 44 47 58       	cmove  0x58(%rdi),%rax
    13ef:	48 83 f9 0c          	cmp    $0xc,%rcx
    13f3:	48 0f 44 47 60       	cmove  0x60(%rdi),%rax
    13f8:	48 83 f9 0d          	cmp    $0xd,%rcx
    13fc:	48 0f 44 47 68       	cmove  0x68(%rdi),%rax
    1401:	48 83 f9 0e          	cmp    $0xe,%rcx
    1405:	48 0f 44 47 70       	cmove  0x70(%rdi),%rax
    140a:	48 83 f9 0f          	cmp    $0xf,%rcx
    140e:	48 0f 44 47 78       	cmove  0x78(%rdi),%rax
    1413:	c3                   	ret
    1414:	66 2e 0f 1f 84 00 00 	cs nopw 0x0(%rax,%rax,1)
    141b:	00 00 00 
    141e:	66 90                	xchg   %ax,%ax

0000000000001420 <ct_decode>:
    1420:	f3 0f 1e fa          	endbr64
    1424:	55                   	push   %rbp
    1425:	48 89 e5             	mov    %rsp,%rbp
    1428:	41 57                	push   %r15
    142a:	41 56                	push   %r14
    142c:	41 55                	push   %r13
    142e:	41 54                	push   %r12
    1430:	53                   	push   %rbx
    1431:	48 83 e4 c0          	and    $0xffffffffffffffc0,%rsp
    1435:	48 81 ec 40 05 00 00 	sub    $0x540,%rsp
    143c:	48 89 bc 24 98 00 00 	mov    %rdi,0x98(%rsp)
    1443:	00 
    1444:	48 89 b4 24 80 00 00 	mov    %rsi,0x80(%rsp)
    144b:	00 
    144c:	64 48 8b 04 25 28 00 	mov    %fs:0x28,%rax
    1453:	00 00 
    1455:	48 89 84 24 38 05 00 	mov    %rax,0x538(%rsp)
    145c:	00 
    145d:	31 c0                	xor    %eax,%eax
    145f:	48 8d 84 24 00 01 00 	lea    0x100(%rsp),%rax
    1466:	00 
    1467:	f6 05 95 f9 00 00 08 	testb  $0x8,0xf995(%rip)        # 10e03 <g_cpu_feature_indicator+0x3>
    146e:	48 89 44 24 08       	mov    %rax,0x8(%rsp)
    1473:	0f 84 7f 0f 00 00    	je     23f8 <ct_decode+0xfd8>
    1479:	62 f1 7c 48 29 00    	vmovaps %zmm0,(%rax)
    147f:	62 f1 7c 48 29 48 01 	vmovaps %zmm1,0x40(%rax)
    1486:	62 f1 7c 48 29 50 02 	vmovaps %zmm2,0x80(%rax)
    148d:	62 f1 7c 48 29 58 03 	vmovaps %zmm3,0xc0(%rax)
    1494:	62 f1 7c 48 29 60 04 	vmovaps %zmm4,0x100(%rax)
    149b:	62 f1 7c 48 29 68 05 	vmovaps %zmm5,0x140(%rax)
    14a2:	62 f1 7c 48 29 70 06 	vmovaps %zmm6,0x180(%rax)
    14a9:	62 f1 7c 48 29 78 07 	vmovaps %zmm7,0x1c0(%rax)
    14b0:	62 71 7c 48 29 40 08 	vmovaps %zmm8,0x200(%rax)
    14b7:	62 71 7c 48 29 48 09 	vmovaps %zmm9,0x240(%rax)
    14be:	62 71 7c 48 29 50 0a 	vmovaps %zmm10,0x280(%rax)
    14c5:	62 71 7c 48 29 58 0b 	vmovaps %zmm11,0x2c0(%rax)
    14cc:	62 71 7c 48 29 60 0c 	vmovaps %zmm12,0x300(%rax)
    14d3:	62 71 7c 48 29 68 0d 	vmovaps %zmm13,0x340(%rax)
    14da:	62 71 7c 48 29 70 0e 	vmovaps %zmm14,0x380(%rax)
    14e1:	62 71 7c 48 29 78 0f 	vmovaps %zmm15,0x3c0(%rax)
    14e8:	48 8b bc 24 98 00 00 	mov    0x98(%rsp),%rdi
    14ef:	00 
    14f0:	31 d2                	xor    %edx,%edx
    14f2:	b9 f0 0f 00 00       	mov    $0xff0,%ecx
    14f7:	c5 f9 6f 2d 21 fc 00 	vmovdqa 0xfc21(%rip),%xmm5        # 11120 <standard>
    14fe:	00 
    14ff:	c4 e3 55 38 2d 17 fb 	vinserti128 $0x1,0xfb17(%rip),%ymm5,%ymm5        # 11020 <extended>
    1506:	00 00 01 
    1509:	c5 79 6f 25 2f fc 00 	vmovdqa 0xfc2f(%rip),%xmm12        # 11140 <standard+0x20>
    1510:	00 
    1511:	41 be 01 00 00 00    	mov    $0x1,%r14d
    1517:	41 bb 02 00 00 00    	mov    $0x2,%r11d
    151d:	48 8b 9f 88 00 00 00 	mov    0x88(%rdi),%rbx
    1524:	48 c7 c7 ff ff ff ff 	mov    $0xffffffffffffffff,%rdi
    152b:	c4 63 1d 38 25 0b fb 	vinserti128 $0x1,0xfb0b(%rip),%ymm12,%ymm12        # 11040 <extended+0x20>
    1532:	00 00 01 
    1535:	41 bf 04 00 00 00    	mov    $0x4,%r15d
    153b:	c5 79 6f 1d 2d fc 00 	vmovdqa 0xfc2d(%rip),%xmm11        # 11170 <standard+0x50>
    1542:	00 
    1543:	c5 79 6f 15 35 fc 00 	vmovdqa 0xfc35(%rip),%xmm10        # 11180 <standard+0x60>
    154a:	00 
    154b:	48 89 d8             	mov    %rbx,%rax
    154e:	c5 79 6f 0d 3a fc 00 	vmovdqa 0xfc3a(%rip),%xmm9        # 11190 <standard+0x70>
    1555:	00 
    1556:	c4 63 25 38 1d 10 fb 	vinserti128 $0x1,0xfb10(%rip),%ymm11,%ymm11        # 11070 <extended+0x50>
    155d:	00 00 01 
    1560:	48 89 9c 24 88 00 00 	mov    %rbx,0x88(%rsp)
    1567:	00 
    1568:	25 ff 0f 00 00       	and    $0xfff,%eax
    156d:	c5 79 6f 05 2b fc 00 	vmovdqa 0xfc2b(%rip),%xmm8        # 111a0 <standard+0x80>
    1574:	00 
    1575:	c4 63 2d 38 15 01 fb 	vinserti128 $0x1,0xfb01(%rip),%ymm10,%ymm10        # 11080 <extended+0x60>
    157c:	00 00 01 
    157f:	48 3d f0 0f 00 00    	cmp    $0xff0,%rax
    1585:	c5 79 6f 3d 43 fc 00 	vmovdqa 0xfc43(%rip),%xmm15        # 111d0 <standard+0xb0>
    158c:	00 
    158d:	c4 63 35 38 0d f9 fa 	vinserti128 $0x1,0xfaf9(%rip),%ymm9,%ymm9        # 11090 <extended+0x70>
    1594:	00 00 01 
    1597:	c4 63 3d 38 05 ff fa 	vinserti128 $0x1,0xfaff(%rip),%ymm8,%ymm8        # 110a0 <extended+0x80>
    159e:	00 00 01 
    15a1:	0f 96 c2             	setbe  %dl
    15a4:	c4 63 05 38 3d 22 fb 	vinserti128 $0x1,0xfb22(%rip),%ymm15,%ymm15        # 110d0 <extended+0xb0>
    15ab:	00 00 01 
    15ae:	48 83 fa 00          	cmp    $0x0,%rdx
    15b2:	48 0f 45 c8          	cmovne %rax,%rcx
    15b6:	31 d2                	xor    %edx,%edx
    15b8:	48 3d f0 0f 00 00    	cmp    $0xff0,%rax
    15be:	0f 97 c2             	seta   %dl
    15c1:	31 c0                	xor    %eax,%eax
    15c3:	48 83 fa 00          	cmp    $0x0,%rdx
    15c7:	48 0f 45 c7          	cmovne %rdi,%rax
    15cb:	48 89 da             	mov    %rbx,%rdx
    15ce:	c4 e1 f9 6e e0       	vmovq  %rax,%xmm4
    15d3:	48 b8 f0 f0 f0 f0 f0 	movabs $0xf0f0f0f0f0f0f0f0,%rax
    15da:	f0 f0 f0 
    15dd:	48 81 e2 00 f0 ff ff 	and    $0xfffffffffffff000,%rdx
    15e4:	c5 d9 6c e4          	vpunpcklqdq %xmm4,%xmm4,%xmm4
    15e8:	c4 e1 f9 6e c0       	vmovq  %rax,%xmm0
    15ed:	48 b8 80 80 80 80 80 	movabs $0x8080808080808080,%rax
    15f4:	80 80 80 
    15f7:	48 09 ca             	or     %rcx,%rdx
    15fa:	c4 e2 7d 59 c0       	vpbroadcastq %xmm0,%ymm0
    15ff:	c4 61 f9 6e f0       	vmovq  %rax,%xmm14
    1604:	b8 10 00 00 00       	mov    $0x10,%eax
    1609:	c5 d9 eb 22          	vpor   (%rdx),%xmm4,%xmm4
    160d:	c4 c2 7d 59 de       	vpbroadcastq %xmm14,%ymm3
    1612:	c4 e2 7d 59 cc       	vpbroadcastq %xmm4,%ymm1
    1617:	c4 e1 f9 7e e6       	vmovq  %xmm4,%rsi
    161c:	c5 fd df d1          	vpandn %ymm1,%ymm0,%ymm2
    1620:	c5 f5 db c8          	vpand  %ymm0,%ymm1,%ymm1
    1624:	c5 f9 ef c0          	vpxor  %xmm0,%xmm0,%xmm0
    1628:	49 89 f2             	mov    %rsi,%r10
    162b:	c5 f5 74 c0          	vpcmpeqb %ymm0,%ymm1,%ymm0
    162f:	c5 fd df c3          	vpandn %ymm3,%ymm0,%ymm0
    1633:	c5 fd eb c2          	vpor   %ymm2,%ymm0,%ymm0
    1637:	c4 62 55 00 e8       	vpshufb %ymm0,%ymm5,%ymm13
    163c:	c5 f9 6e c0          	vmovd  %eax,%xmm0
    1640:	c5 f9 6f 2d e8 fa 00 	vmovdqa 0xfae8(%rip),%xmm5        # 11130 <standard+0x10>
    1647:	00 
    1648:	c4 e3 55 38 2d de f9 	vinserti128 $0x1,0xf9de(%rip),%ymm5,%ymm5        # 11030 <extended+0x10>
    164f:	00 00 01 
    1652:	c4 e2 7d 78 c0       	vpbroadcastb %xmm0,%ymm0
    1657:	b8 20 00 00 00       	mov    $0x20,%eax
    165c:	c5 7d 7f ac 24 c0 00 	vmovdqa %ymm13,0xc0(%rsp)
    1663:	00 00 
    1665:	c5 f5 74 c0          	vpcmpeqb %ymm0,%ymm1,%ymm0
    1669:	c5 fd df c3          	vpandn %ymm3,%ymm0,%ymm0
    166d:	c5 fd eb c2          	vpor   %ymm2,%ymm0,%ymm0
    1671:	c4 e2 55 00 f8       	vpshufb %ymm0,%ymm5,%ymm7
    1676:	c5 f9 6e c0          	vmovd  %eax,%xmm0
    167a:	b8 30 00 00 00       	mov    $0x30,%eax
    167f:	c5 f9 6f 2d c9 fa 00 	vmovdqa 0xfac9(%rip),%xmm5        # 11150 <standard+0x30>
    1686:	00 
    1687:	c4 e3 55 38 2d bf f9 	vinserti128 $0x1,0xf9bf(%rip),%ymm5,%ymm5        # 11050 <extended+0x30>
    168e:	00 00 01 
    1691:	c4 e2 7d 78 c0       	vpbroadcastb %xmm0,%ymm0
    1696:	c5 fd 7f bc 24 e0 00 	vmovdqa %ymm7,0xe0(%rsp)
    169d:	00 00 
    169f:	c5 f9 6f 3d 09 fb 00 	vmovdqa 0xfb09(%rip),%xmm7        # 111b0 <standard+0x90>
    16a6:	00 
    16a7:	c4 e3 45 38 3d ff f9 	vinserti128 $0x1,0xf9ff(%rip),%ymm7,%ymm7        # 110b0 <extended+0x90>
    16ae:	00 00 01 
    16b1:	c5 f5 74 c0          	vpcmpeqb %ymm0,%ymm1,%ymm0
    16b5:	c5 fd df c3          	vpandn %ymm3,%ymm0,%ymm0
    16b9:	c5 fd eb c2          	vpor   %ymm2,%ymm0,%ymm0
    16bd:	c4 62 1d 00 e0       	vpshufb %ymm0,%ymm12,%ymm12
    16c2:	c5 f9 6e c0          	vmovd  %eax,%xmm0
    16c6:	b8 40 00 00 00       	mov    $0x40,%eax
    16cb:	c4 e2 7d 78 c0       	vpbroadcastb %xmm0,%ymm0
    16d0:	c5 f9 6e f0          	vmovd  %eax,%xmm6
    16d4:	b8 50 00 00 00       	mov    $0x50,%eax
    16d9:	c5 f5 74 c0          	vpcmpeqb %ymm0,%ymm1,%ymm0
    16dd:	c4 e2 7d 78 f6       	vpbroadcastb %xmm6,%ymm6
    16e2:	c5 f5 74 f6          	vpcmpeqb %ymm6,%ymm1,%ymm6
    16e6:	c5 fd df c3          	vpandn %ymm3,%ymm0,%ymm0
    16ea:	c5 fd eb c2          	vpor   %ymm2,%ymm0,%ymm0
    16ee:	c5 cd df f3          	vpandn %ymm3,%ymm6,%ymm6
    16f2:	c4 e2 55 00 e8       	vpshufb %ymm0,%ymm5,%ymm5
    16f7:	c5 f9 6f 05 61 fa 00 	vmovdqa 0xfa61(%rip),%xmm0        # 11160 <standard+0x40>
    16fe:	00 
    16ff:	c5 cd eb f2          	vpor   %ymm2,%ymm6,%ymm6
    1703:	c4 e3 7d 38 05 53 f9 	vinserti128 $0x1,0xf953(%rip),%ymm0,%ymm0        # 11060 <extended+0x40>
    170a:	00 00 01 
    170d:	c4 e1 f9 7e ea       	vmovq  %xmm5,%rdx
    1712:	c4 e3 7d 39 ed 01    	vextracti128 $0x1,%ymm5,%xmm5
    1718:	c4 e2 7d 00 c6       	vpshufb %ymm6,%ymm0,%ymm0
    171d:	c5 f9 6e f0          	vmovd  %eax,%xmm6
    1721:	b8 60 00 00 00       	mov    $0x60,%eax
    1726:	c4 e2 7d 78 f6       	vpbroadcastb %xmm6,%ymm6
    172b:	c5 f5 74 f6          	vpcmpeqb %ymm6,%ymm1,%ymm6
    172f:	c5 cd df f3          	vpandn %ymm3,%ymm6,%ymm6
    1733:	c5 cd eb f2          	vpor   %ymm2,%ymm6,%ymm6
    1737:	c4 62 25 00 de       	vpshufb %ymm6,%ymm11,%ymm11
    173c:	c5 f9 6e f0          	vmovd  %eax,%xmm6
    1740:	b8 70 00 00 00       	mov    $0x70,%eax
    1745:	c4 e2 7d 78 f6       	vpbroadcastb %xmm6,%ymm6
    174a:	c5 f5 74 f6          	vpcmpeqb %ymm6,%ymm1,%ymm6
    174e:	c5 cd df f3          	vpandn %ymm3,%ymm6,%ymm6
    1752:	c5 cd eb f2          	vpor   %ymm2,%ymm6,%ymm6
    1756:	c4 62 2d 00 d6       	vpshufb %ymm6,%ymm10,%ymm10
    175b:	c5 f9 6e f0          	vmovd  %eax,%xmm6
    175f:	b8 80 ff ff ff       	mov    $0xffffff80,%eax
    1764:	c4 e2 7d 78 f6       	vpbroadcastb %xmm6,%ymm6
    1769:	c5 f5 74 f6          	vpcmpeqb %ymm6,%ymm1,%ymm6
    176d:	c5 cd df f3          	vpandn %ymm3,%ymm6,%ymm6
    1771:	c5 cd eb f2          	vpor   %ymm2,%ymm6,%ymm6
    1775:	c4 62 35 00 ce       	vpshufb %ymm6,%ymm9,%ymm9
    177a:	c5 f9 6e f0          	vmovd  %eax,%xmm6
    177e:	b8 90 ff ff ff       	mov    $0xffffff90,%eax
    1783:	c4 e2 7d 78 f6       	vpbroadcastb %xmm6,%ymm6
    1788:	c5 f5 74 f6          	vpcmpeqb %ymm6,%ymm1,%ymm6
    178c:	c5 cd df f3          	vpandn %ymm3,%ymm6,%ymm6
    1790:	c5 cd eb f2          	vpor   %ymm2,%ymm6,%ymm6
    1794:	c4 62 3d 00 c6       	vpshufb %ymm6,%ymm8,%ymm8
    1799:	c5 f9 6e f0          	vmovd  %eax,%xmm6
    179d:	b8 a0 ff ff ff       	mov    $0xffffffa0,%eax
    17a2:	c4 e2 7d 78 f6       	vpbroadcastb %xmm6,%ymm6
    17a7:	c5 79 6e e8          	vmovd  %eax,%xmm13
    17ab:	b8 b0 ff ff ff       	mov    $0xffffffb0,%eax
    17b0:	c5 f5 74 f6          	vpcmpeqb %ymm6,%ymm1,%ymm6
    17b4:	c4 42 7d 78 ed       	vpbroadcastb %xmm13,%ymm13
    17b9:	c4 41 75 74 ed       	vpcmpeqb %ymm13,%ymm1,%ymm13
    17be:	c5 cd df f3          	vpandn %ymm3,%ymm6,%ymm6
    17c2:	c5 cd eb f2          	vpor   %ymm2,%ymm6,%ymm6
    17c6:	c5 15 df eb          	vpandn %ymm3,%ymm13,%ymm13
    17ca:	c4 e2 45 00 fe       	vpshufb %ymm6,%ymm7,%ymm7
    17cf:	c5 f9 6f 35 e9 f9 00 	vmovdqa 0xf9e9(%rip),%xmm6        # 111c0 <standard+0xa0>
    17d6:	00 
    17d7:	c5 15 eb ea          	vpor   %ymm2,%ymm13,%ymm13
    17db:	c4 e3 4d 38 35 db f8 	vinserti128 $0x1,0xf8db(%rip),%ymm6,%ymm6        # 110c0 <extended+0xa0>
    17e2:	00 00 01 
    17e5:	c4 c2 4d 00 f5       	vpshufb %ymm13,%ymm6,%ymm6
    17ea:	c5 79 6e e8          	vmovd  %eax,%xmm13
    17ee:	b8 c0 ff ff ff       	mov    $0xffffffc0,%eax
    17f3:	c4 42 7d 78 ed       	vpbroadcastb %xmm13,%ymm13
    17f8:	c4 41 75 74 ed       	vpcmpeqb %ymm13,%ymm1,%ymm13
    17fd:	c5 15 df eb          	vpandn %ymm3,%ymm13,%ymm13
    1801:	c5 15 eb ea          	vpor   %ymm2,%ymm13,%ymm13
    1805:	c4 42 05 00 fd       	vpshufb %ymm13,%ymm15,%ymm15
    180a:	c5 79 6e e8          	vmovd  %eax,%xmm13
    180e:	b8 d0 ff ff ff       	mov    $0xffffffd0,%eax
    1813:	c5 7d 7f bc 24 a0 00 	vmovdqa %ymm15,0xa0(%rsp)
    181a:	00 00 
    181c:	c4 42 7d 78 ed       	vpbroadcastb %xmm13,%ymm13
    1821:	c5 79 6f 3d b7 f9 00 	vmovdqa 0xf9b7(%rip),%xmm15        # 111e0 <standard+0xc0>
    1828:	00 
    1829:	c4 63 05 38 3d ad f8 	vinserti128 $0x1,0xf8ad(%rip),%ymm15,%ymm15        # 110e0 <extended+0xc0>
    1830:	00 00 01 
    1833:	c4 41 75 74 ed       	vpcmpeqb %ymm13,%ymm1,%ymm13
    1838:	c5 15 df eb          	vpandn %ymm3,%ymm13,%ymm13
    183c:	c5 15 eb ea          	vpor   %ymm2,%ymm13,%ymm13
    1840:	c4 42 05 00 fd       	vpshufb %ymm13,%ymm15,%ymm15
    1845:	c5 79 6e e8          	vmovd  %eax,%xmm13
    1849:	b8 e0 ff ff ff       	mov    $0xffffffe0,%eax
    184e:	c4 42 7d 78 ed       	vpbroadcastb %xmm13,%ymm13
    1853:	c5 7d 7f 7c 24 60    	vmovdqa %ymm15,0x60(%rsp)
    1859:	c5 79 6f 3d 8f f9 00 	vmovdqa 0xf98f(%rip),%xmm15        # 111f0 <standard+0xd0>
    1860:	00 
    1861:	c4 63 05 38 3d 85 f8 	vinserti128 $0x1,0xf885(%rip),%ymm15,%ymm15        # 110f0 <extended+0xd0>
    1868:	00 00 01 
    186b:	c4 41 75 74 ed       	vpcmpeqb %ymm13,%ymm1,%ymm13
    1870:	c5 15 df eb          	vpandn %ymm3,%ymm13,%ymm13
    1874:	c5 15 eb ea          	vpor   %ymm2,%ymm13,%ymm13
    1878:	c4 42 05 00 fd       	vpshufb %ymm13,%ymm15,%ymm15
    187d:	c5 79 6e e8          	vmovd  %eax,%xmm13
    1881:	b8 f0 ff ff ff       	mov    $0xfffffff0,%eax
    1886:	c4 42 7d 78 ed       	vpbroadcastb %xmm13,%ymm13
    188b:	c5 7d 7f 7c 24 40    	vmovdqa %ymm15,0x40(%rsp)
    1891:	c5 79 6f 3d 67 f9 00 	vmovdqa 0xf967(%rip),%xmm15        # 11200 <standard+0xe0>
    1898:	00 
    1899:	c4 63 05 38 3d 5d f8 	vinserti128 $0x1,0xf85d(%rip),%ymm15,%ymm15        # 11100 <extended+0xe0>
    18a0:	00 00 01 
    18a3:	c4 41 75 74 ed       	vpcmpeqb %ymm13,%ymm1,%ymm13
    18a8:	c5 15 df eb          	vpandn %ymm3,%ymm13,%ymm13
    18ac:	c5 15 eb ea          	vpor   %ymm2,%ymm13,%ymm13
    18b0:	c4 42 05 00 fd       	vpshufb %ymm13,%ymm15,%ymm15
    18b5:	c5 79 6e e8          	vmovd  %eax,%xmm13
    18b9:	c4 61 f9 7e e0       	vmovq  %xmm12,%rax
    18be:	c4 42 7d 78 ed       	vpbroadcastb %xmm13,%ymm13
    18c3:	48 09 d0             	or     %rdx,%rax
    18c6:	c4 e1 f9 7e c2       	vmovq  %xmm0,%rdx
    18cb:	c4 c1 75 74 cd       	vpcmpeqb %ymm13,%ymm1,%ymm1
    18d0:	48 09 d0             	or     %rdx,%rax
    18d3:	c4 61 f9 7e da       	vmovq  %xmm11,%rdx
    18d8:	c5 7d 6f ac 24 c0 00 	vmovdqa 0xc0(%rsp),%ymm13
    18df:	00 00 
    18e1:	48 09 d0             	or     %rdx,%rax
    18e4:	c4 61 f9 7e d2       	vmovq  %xmm10,%rdx
    18e9:	c4 43 7d 39 e4 01    	vextracti128 $0x1,%ymm12,%xmm12
    18ef:	48 09 d0             	or     %rdx,%rax
    18f2:	c4 61 f9 7e ca       	vmovq  %xmm9,%rdx
    18f7:	c5 99 eb ed          	vpor   %xmm5,%xmm12,%xmm5
    18fb:	c5 f5 df cb          	vpandn %ymm3,%ymm1,%ymm1
    18ff:	48 09 d0             	or     %rdx,%rax
    1902:	c5 f9 6f 1d 06 f9 00 	vmovdqa 0xf906(%rip),%xmm3        # 11210 <standard+0xf0>
    1909:	00 
    190a:	c4 e3 65 38 1d fc f7 	vinserti128 $0x1,0xf7fc(%rip),%ymm3,%ymm3        # 11110 <extended+0xf0>
    1911:	00 00 01 
    1914:	c5 f5 eb ca          	vpor   %ymm2,%ymm1,%ymm1
    1918:	c4 61 f9 7e c2       	vmovq  %xmm8,%rdx
    191d:	c4 61 f9 7e e9       	vmovq  %xmm13,%rcx
    1922:	c4 e2 65 00 d9       	vpshufb %ymm1,%ymm3,%ymm3
    1927:	48 09 d0             	or     %rdx,%rax
    192a:	c5 f9 6f 8c 24 a0 00 	vmovdqa 0xa0(%rsp),%xmm1
    1931:	00 00 
    1933:	c4 e1 f9 7e fa       	vmovq  %xmm7,%rdx
    1938:	48 09 d0             	or     %rdx,%rax
    193b:	c4 e1 f9 7e f2       	vmovq  %xmm6,%rdx
    1940:	c4 e3 7d 39 c0 01    	vextracti128 $0x1,%ymm0,%xmm0
    1946:	48 09 d0             	or     %rdx,%rax
    1949:	c4 e1 f9 7e ca       	vmovq  %xmm1,%rdx
    194e:	c5 d1 eb c0          	vpor   %xmm0,%xmm5,%xmm0
    1952:	c5 f9 6f 4c 24 60    	vmovdqa 0x60(%rsp),%xmm1
    1958:	48 09 d0             	or     %rdx,%rax
    195b:	c4 43 7d 39 db 01    	vextracti128 $0x1,%ymm11,%xmm11
    1961:	c4 43 7d 39 d2 01    	vextracti128 $0x1,%ymm10,%xmm10
    1967:	c5 fd 6f ac 24 a0 00 	vmovdqa 0xa0(%rsp),%ymm5
    196e:	00 00 
    1970:	c4 e1 f9 7e ca       	vmovq  %xmm1,%rdx
    1975:	c5 f9 6f 4c 24 40    	vmovdqa 0x40(%rsp),%xmm1
    197b:	c4 c1 79 eb c3       	vpor   %xmm11,%xmm0,%xmm0
    1980:	c4 43 7d 39 c9 01    	vextracti128 $0x1,%ymm9,%xmm9
    1986:	48 09 d0             	or     %rdx,%rax
    1989:	c4 c1 79 eb c2       	vpor   %xmm10,%xmm0,%xmm0
    198e:	c4 43 7d 39 c0 01    	vextracti128 $0x1,%ymm8,%xmm8
    1994:	c4 e1 f9 7e ca       	vmovq  %xmm1,%rdx
    1999:	c4 c1 79 eb c1       	vpor   %xmm9,%xmm0,%xmm0
    199e:	c5 f9 6f 8c 24 e0 00 	vmovdqa 0xe0(%rsp),%xmm1
    19a5:	00 00 
    19a7:	c4 e3 7d 39 ff 01    	vextracti128 $0x1,%ymm7,%xmm7
    19ad:	48 09 d0             	or     %rdx,%rax
    19b0:	c4 61 f9 7e fa       	vmovq  %xmm15,%rdx
    19b5:	c4 c1 79 eb c0       	vpor   %xmm8,%xmm0,%xmm0
    19ba:	48 09 d0             	or     %rdx,%rax
    19bd:	c4 e1 f9 7e da       	vmovq  %xmm3,%rdx
    19c2:	c5 f9 eb c7          	vpor   %xmm7,%xmm0,%xmm0
    19c6:	c5 fd 6f bc 24 e0 00 	vmovdqa 0xe0(%rsp),%ymm7
    19cd:	00 00 
    19cf:	48 09 d0             	or     %rdx,%rax
    19d2:	c4 e1 f9 7e ca       	vmovq  %xmm1,%rdx
    19d7:	c4 e3 7d 39 f6 01    	vextracti128 $0x1,%ymm6,%xmm6
    19dd:	48 09 ca             	or     %rcx,%rdx
    19e0:	31 c9                	xor    %ecx,%ecx
    19e2:	c5 f9 eb c6          	vpor   %xmm6,%xmm0,%xmm0
    19e6:	48 09 d0             	or     %rdx,%rax
    19e9:	c4 43 7d 39 ff 01    	vextracti128 $0x1,%ymm15,%xmm15
    19ef:	c4 e3 7d 39 db 01    	vextracti128 $0x1,%ymm3,%xmm3
    19f5:	48 ba ff ff ff ff ff 	movabs $0xffffffffffff,%rdx
    19fc:	ff 00 00 
    19ff:	48 21 c2             	and    %rax,%rdx
    1a02:	25 c0 00 00 00       	and    $0xc0,%eax
    1a07:	48 83 f8 7f          	cmp    $0x7f,%rax
    1a0b:	b8 0f 00 00 00       	mov    $0xf,%eax
    1a10:	0f 97 c1             	seta   %cl
    1a13:	45 31 ed             	xor    %r13d,%r13d
    1a16:	48 83 f9 00          	cmp    $0x0,%rcx
    1a1a:	41 0f 45 c5          	cmovne %r13d,%eax
    1a1e:	48 89 d1             	mov    %rdx,%rcx
    1a21:	41 89 c0             	mov    %eax,%r8d
    1a24:	45 89 ec             	mov    %r13d,%r12d
    1a27:	48 c1 e9 08          	shr    $0x8,%rcx
    1a2b:	81 e1 c0 00 00 00    	and    $0xc0,%ecx
    1a31:	48 83 f9 7f          	cmp    $0x7f,%rcx
    1a35:	0f 97 c1             	seta   %cl
    1a38:	41 c1 e0 08          	shl    $0x8,%r8d
    1a3c:	0f b6 c9             	movzbl %cl,%ecx
    1a3f:	44 09 c1             	or     %r8d,%ecx
    1a42:	81 f9 01 0f 00 00    	cmp    $0xf01,%ecx
    1a48:	0f 94 c1             	sete   %cl
    1a4b:	0f b6 c9             	movzbl %cl,%ecx
    1a4e:	48 83 f9 00          	cmp    $0x0,%rcx
    1a52:	41 0f 45 c6          	cmovne %r14d,%eax
    1a56:	48 89 d1             	mov    %rdx,%rcx
    1a59:	41 89 c0             	mov    %eax,%r8d
    1a5c:	48 c1 e9 10          	shr    $0x10,%rcx
    1a60:	81 e1 c0 00 00 00    	and    $0xc0,%ecx
    1a66:	48 83 f9 7f          	cmp    $0x7f,%rcx
    1a6a:	0f 97 c1             	seta   %cl
    1a6d:	41 c1 e0 08          	shl    $0x8,%r8d
    1a71:	0f b6 c9             	movzbl %cl,%ecx
    1a74:	44 09 c1             	or     %r8d,%ecx
    1a77:	81 f9 01 0f 00 00    	cmp    $0xf01,%ecx
    1a7d:	0f 94 c1             	sete   %cl
    1a80:	0f b6 c9             	movzbl %cl,%ecx
    1a83:	48 83 f9 00          	cmp    $0x0,%rcx
    1a87:	41 0f 45 c3          	cmovne %r11d,%eax
    1a8b:	48 89 d1             	mov    %rdx,%rcx
    1a8e:	41 89 c0             	mov    %eax,%r8d
    1a91:	48 c1 e9 18          	shr    $0x18,%rcx
    1a95:	81 e1 c0 00 00 00    	and    $0xc0,%ecx
    1a9b:	48 83 f9 7f          	cmp    $0x7f,%rcx
    1a9f:	0f 97 c1             	seta   %cl
    1aa2:	41 c1 e0 08          	shl    $0x8,%r8d
    1aa6:	0f b6 c9             	movzbl %cl,%ecx
    1aa9:	44 09 c1             	or     %r8d,%ecx
    1aac:	41 b8 03 00 00 00    	mov    $0x3,%r8d
    1ab2:	81 f9 01 0f 00 00    	cmp    $0xf01,%ecx
    1ab8:	0f 94 c1             	sete   %cl
    1abb:	0f b6 c9             	movzbl %cl,%ecx
    1abe:	48 83 f9 00          	cmp    $0x0,%rcx
    1ac2:	41 0f 45 c0          	cmovne %r8d,%eax
    1ac6:	48 89 d1             	mov    %rdx,%rcx
    1ac9:	41 89 c1             	mov    %eax,%r9d
    1acc:	48 c1 e9 20          	shr    $0x20,%rcx
    1ad0:	81 e1 c0 00 00 00    	and    $0xc0,%ecx
    1ad6:	48 83 f9 7f          	cmp    $0x7f,%rcx
    1ada:	0f 97 c1             	seta   %cl
    1add:	41 c1 e1 08          	shl    $0x8,%r9d
    1ae1:	0f b6 c9             	movzbl %cl,%ecx
    1ae4:	44 09 c9             	or     %r9d,%ecx
    1ae7:	81 f9 01 0f 00 00    	cmp    $0xf01,%ecx
    1aed:	0f 94 c1             	sete   %cl
    1af0:	0f b6 c9             	movzbl %cl,%ecx
    1af3:	48 83 f9 00          	cmp    $0x0,%rcx
    1af7:	41 0f 45 c7          	cmovne %r15d,%eax
    1afb:	48 89 d1             	mov    %rdx,%rcx
    1afe:	41 89 c1             	mov    %eax,%r9d
    1b01:	49 89 d7             	mov    %rdx,%r15
    1b04:	48 c1 e9 28          	shr    $0x28,%rcx
    1b08:	81 e1 c0 00 00 00    	and    $0xc0,%ecx
    1b0e:	48 83 f9 7f          	cmp    $0x7f,%rcx
    1b12:	0f 97 c1             	seta   %cl
    1b15:	41 c1 e1 08          	shl    $0x8,%r9d
    1b19:	0f b6 c9             	movzbl %cl,%ecx
    1b1c:	44 09 c9             	or     %r9d,%ecx
    1b1f:	41 b9 05 00 00 00    	mov    $0x5,%r9d
    1b25:	81 f9 01 0f 00 00    	cmp    $0xf01,%ecx
    1b2b:	0f 94 c1             	sete   %cl
    1b2e:	0f b6 c9             	movzbl %cl,%ecx
    1b31:	48 83 f9 00          	cmp    $0x0,%rcx
    1b35:	41 0f 45 c1          	cmovne %r9d,%eax
    1b39:	8d 0c c5 00 00 00 00 	lea    0x0(,%rax,8),%ecx
    1b40:	49 d3 ef             	shr    %cl,%r15
    1b43:	49 d3 ea             	shr    %cl,%r10
    1b46:	4c 89 d1             	mov    %r10,%rcx
    1b49:	45 89 fa             	mov    %r15d,%r10d
    1b4c:	4c 89 fb             	mov    %r15,%rbx
    1b4f:	48 89 8c 24 90 00 00 	mov    %rcx,0x90(%rsp)
    1b56:	00 
    1b57:	41 c0 ea 02          	shr    $0x2,%r10b
    1b5b:	31 c9                	xor    %ecx,%ecx
    1b5d:	80 bc 24 90 00 00 00 	cmpb   $0xf,0x90(%rsp)
    1b64:	0f 
    1b65:	0f 94 c1             	sete   %cl
    1b68:	44 88 94 24 c0 00 00 	mov    %r10b,0xc0(%rsp)
    1b6f:	00 
    1b70:	45 31 d2             	xor    %r10d,%r10d
    1b73:	48 83 f9 00          	cmp    $0x0,%rcx
    1b77:	45 0f 45 e6          	cmovne %r14d,%r12d
    1b7b:	44 89 f9             	mov    %r15d,%ecx
    1b7e:	45 89 ef             	mov    %r13d,%r15d
    1b81:	83 e1 f0             	and    $0xfffffff0,%ecx
    1b84:	80 f9 a0             	cmp    $0xa0,%cl
    1b87:	41 0f 94 c2          	sete   %r10b
    1b8b:	49 83 fa 00          	cmp    $0x0,%r10
    1b8f:	45 0f 45 fe          	cmovne %r14d,%r15d
    1b93:	80 f9 b0             	cmp    $0xb0,%cl
    1b96:	45 89 ea             	mov    %r13d,%r10d
    1b99:	44 89 7c 24 34       	mov    %r15d,0x34(%rsp)
    1b9e:	45 89 ef             	mov    %r13d,%r15d
    1ba1:	0f 94 c1             	sete   %cl
    1ba4:	41 29 c1             	sub    %eax,%r9d
    1ba7:	0f b6 c9             	movzbl %cl,%ecx
    1baa:	48 83 f9 00          	cmp    $0x0,%rcx
    1bae:	45 0f 45 d6          	cmovne %r14d,%r10d
    1bb2:	42 8d 0c cd 00 00 00 	lea    0x0(,%r9,8),%ecx
    1bb9:	00 
    1bba:	44 89 54 24 30       	mov    %r10d,0x30(%rsp)
    1bbf:	49 ba ff ff ff ff ff 	movabs $0xffffffffff,%r10
    1bc6:	00 00 00 
    1bc9:	49 d3 fa             	sar    %cl,%r10
    1bcc:	8d 0c c5 f8 ff ff ff 	lea    -0x8(,%rax,8),%ecx
    1bd3:	4c 21 d2             	and    %r10,%rdx
    1bd6:	45 31 d2             	xor    %r10d,%r10d
    1bd9:	49 89 d1             	mov    %rdx,%r9
    1bdc:	c4 e1 f9 6e d2       	vmovq  %rdx,%xmm2
    1be1:	49 d3 e9             	shr    %cl,%r9
    1be4:	c4 c1 f9 6e c9       	vmovq  %r9,%xmm1
    1be9:	c4 e3 f1 22 cf 01    	vpinsrq $0x1,%rdi,%xmm1,%xmm1
    1bef:	c5 f1 74 0d 19 b4 00 	vpcmpeqb 0xb419(%rip),%xmm1,%xmm1        # d010 <g_dyn_entry_table+0x10>
    1bf6:	00 
    1bf7:	c4 c1 f9 7e c9       	vmovq  %xmm1,%r9
    1bfc:	c4 e3 e9 22 cf 01    	vpinsrq $0x1,%rdi,%xmm2,%xmm1
    1c02:	48 89 df             	mov    %rbx,%rdi
    1c05:	c5 f1 74 15 13 b4 00 	vpcmpeqb 0xb413(%rip),%xmm1,%xmm2        # d020 <g_dyn_entry_table+0x20>
    1c0c:	00 
    1c0d:	4d 85 c9             	test   %r9,%r9
    1c10:	45 89 f1             	mov    %r14d,%r9d
    1c13:	41 0f 94 c2          	sete   %r10b
    1c17:	48 d3 ee             	shr    %cl,%rsi
    1c1a:	31 c9                	xor    %ecx,%ecx
    1c1c:	83 e6 4f             	and    $0x4f,%esi
    1c1f:	c4 e1 f9 7e d2       	vmovq  %xmm2,%rdx
    1c24:	c5 f1 74 15 04 b4 00 	vpcmpeqb 0xb404(%rip),%xmm1,%xmm2        # d030 <g_dyn_entry_table+0x30>
    1c2b:	00 
    1c2c:	49 83 fa 00          	cmp    $0x0,%r10
    1c30:	45 0f 45 cd          	cmovne %r13d,%r9d
    1c34:	45 89 c9             	mov    %r9d,%r9d
    1c37:	49 83 f9 00          	cmp    $0x0,%r9
    1c3b:	44 0f 45 fe          	cmovne %esi,%r15d
    1c3f:	48 85 d2             	test   %rdx,%rdx
    1c42:	44 89 f2             	mov    %r14d,%edx
    1c45:	44 89 f6             	mov    %r14d,%esi
    1c48:	44 89 7c 24 2c       	mov    %r15d,0x2c(%rsp)
    1c4d:	0f 94 c1             	sete   %cl
    1c50:	48 83 f9 00          	cmp    $0x0,%rcx
    1c54:	41 0f 45 d5          	cmovne %r13d,%edx
    1c58:	89 d1                	mov    %edx,%ecx
    1c5a:	44 89 ea             	mov    %r13d,%edx
    1c5d:	48 83 f9 00          	cmp    $0x0,%rcx
    1c61:	41 0f 45 d6          	cmovne %r14d,%edx
    1c65:	c4 e1 f9 7e d1       	vmovq  %xmm2,%rcx
    1c6a:	c5 f1 74 15 ce b3 00 	vpcmpeqb 0xb3ce(%rip),%xmm1,%xmm2        # d040 <g_dyn_entry_table+0x40>
    1c71:	00 
    1c72:	48 85 c9             	test   %rcx,%rcx
    1c75:	0f 94 c1             	sete   %cl
    1c78:	0f b6 c9             	movzbl %cl,%ecx
    1c7b:	48 83 f9 00          	cmp    $0x0,%rcx
    1c7f:	41 0f 45 f5          	cmovne %r13d,%esi
    1c83:	c4 e1 f9 7e d1       	vmovq  %xmm2,%rcx
    1c88:	c5 f1 74 15 c0 b3 00 	vpcmpeqb 0xb3c0(%rip),%xmm1,%xmm2        # d050 <g_dyn_entry_table+0x50>
    1c8f:	00 
    1c90:	89 74 24 28          	mov    %esi,0x28(%rsp)
    1c94:	44 89 f6             	mov    %r14d,%esi
    1c97:	48 85 c9             	test   %rcx,%rcx
    1c9a:	c5 f1 74 0d be b3 00 	vpcmpeqb 0xb3be(%rip),%xmm1,%xmm1        # d060 <g_dyn_entry_table+0x60>
    1ca1:	00 
    1ca2:	0f 94 c1             	sete   %cl
    1ca5:	0f b6 c9             	movzbl %cl,%ecx
    1ca8:	48 83 f9 00          	cmp    $0x0,%rcx
    1cac:	41 0f 45 f5          	cmovne %r13d,%esi
    1cb0:	c4 e1 f9 7e d1       	vmovq  %xmm2,%rcx
    1cb5:	89 74 24 24          	mov    %esi,0x24(%rsp)
    1cb9:	31 f6                	xor    %esi,%esi
    1cbb:	c4 63 7d 39 ea 01    	vextracti128 $0x1,%ymm13,%xmm2
    1cc1:	48 85 c9             	test   %rcx,%rcx
    1cc4:	44 89 f1             	mov    %r14d,%ecx
    1cc7:	40 0f 94 c6          	sete   %sil
    1ccb:	48 83 fe 00          	cmp    $0x0,%rsi
    1ccf:	41 0f 45 cd          	cmovne %r13d,%ecx
    1cd3:	89 c9                	mov    %ecx,%ecx
    1cd5:	31 f6                	xor    %esi,%esi
    1cd7:	48 83 f9 00          	cmp    $0x0,%rcx
    1cdb:	41 0f 45 d0          	cmovne %r8d,%edx
    1cdf:	c4 e1 f9 7e c9       	vmovq  %xmm1,%rcx
    1ce4:	c4 e3 7d 39 e9 01    	vextracti128 $0x1,%ymm5,%xmm1
    1cea:	41 89 d1             	mov    %edx,%r9d
    1ced:	c5 fd 6f 6c 24 60    	vmovdqa 0x60(%rsp),%ymm5
    1cf3:	c5 f9 eb c1          	vpor   %xmm1,%xmm0,%xmm0
    1cf7:	48 85 c9             	test   %rcx,%rcx
    1cfa:	44 89 f1             	mov    %r14d,%ecx
    1cfd:	c4 e3 7d 39 e9 01    	vextracti128 $0x1,%ymm5,%xmm1
    1d03:	c5 fd 6f 6c 24 40    	vmovdqa 0x40(%rsp),%ymm5
    1d09:	40 0f 94 c6          	sete   %sil
    1d0d:	44 8b 84 24 c0 00 00 	mov    0xc0(%rsp),%r8d
    1d14:	00 
    1d15:	c5 f9 eb c1          	vpor   %xmm1,%xmm0,%xmm0
    1d19:	48 89 7c 24 38       	mov    %rdi,0x38(%rsp)
    1d1e:	c4 e3 7d 39 e9 01    	vextracti128 $0x1,%ymm5,%xmm1
    1d24:	41 83 e0 03          	and    $0x3,%r8d
    1d28:	c5 f9 eb c1          	vpor   %xmm1,%xmm0,%xmm0
    1d2c:	c4 e3 7d 39 f9 01    	vextracti128 $0x1,%ymm7,%xmm1
    1d32:	c4 c1 79 eb c7       	vpor   %xmm15,%xmm0,%xmm0
    1d37:	c5 f1 eb ca          	vpor   %xmm2,%xmm1,%xmm1
    1d3b:	c5 f9 eb c3          	vpor   %xmm3,%xmm0,%xmm0
    1d3f:	c5 f9 eb c1          	vpor   %xmm1,%xmm0,%xmm0
    1d43:	48 83 fe 00          	cmp    $0x0,%rsi
    1d47:	41 0f 45 cd          	cmovne %r13d,%ecx
    1d4b:	c4 e1 f9 7e c2       	vmovq  %xmm0,%rdx
    1d50:	89 c9                	mov    %ecx,%ecx
    1d52:	44 89 c6             	mov    %r8d,%esi
    1d55:	49 b8 00 80 80 80 80 	movabs $0x8080808080808000,%r8
    1d5c:	80 80 80 
    1d5f:	48 83 f9 00          	cmp    $0x0,%rcx
    1d63:	45 0f 45 cb          	cmovne %r11d,%r9d
    1d67:	8d 0c c5 08 00 00 00 	lea    0x8(,%rax,8),%ecx
    1d6e:	44 01 e0             	add    %r12d,%eax
    1d71:	48 d3 fa             	sar    %cl,%rdx
    1d74:	89 d1                	mov    %edx,%ecx
    1d76:	c0 e9 04             	shr    $0x4,%cl
    1d79:	41 89 cb             	mov    %ecx,%r11d
    1d7c:	44 89 e1             	mov    %r12d,%ecx
    1d7f:	41 83 e3 03          	and    $0x3,%r11d
    1d83:	48 83 f9 00          	cmp    $0x0,%rcx
    1d87:	41 0f 45 f3          	cmovne %r11d,%esi
    1d8b:	8d 48 01             	lea    0x1(%rax),%ecx
    1d8e:	0f b6 c9             	movzbl %cl,%ecx
    1d91:	4c 09 c1             	or     %r8,%rcx
    1d94:	c4 e1 f9 6e f9       	vmovq  %rcx,%xmm7
    1d99:	c4 c1 41 6c c6       	vpunpcklqdq %xmm14,%xmm7,%xmm0
    1d9e:	c4 e2 59 00 c0       	vpshufb %xmm0,%xmm4,%xmm0
    1da3:	c4 e1 f9 7e c1       	vmovq  %xmm0,%rcx
    1da8:	41 89 c8             	mov    %ecx,%r8d
    1dab:	41 89 cf             	mov    %ecx,%r15d
    1dae:	41 c0 e8 03          	shr    $0x3,%r8b
    1db2:	41 c0 ef 06          	shr    $0x6,%r15b
    1db6:	45 89 c2             	mov    %r8d,%r10d
    1db9:	44 88 7c 24 60       	mov    %r15b,0x60(%rsp)
    1dbe:	41 83 e2 07          	and    $0x7,%r10d
    1dc2:	44 88 54 24 40       	mov    %r10b,0x40(%rsp)
    1dc7:	41 89 ca             	mov    %ecx,%r10d
    1dca:	41 83 e2 07          	and    $0x7,%r10d
    1dce:	44 88 94 24 a0 00 00 	mov    %r10b,0xa0(%rsp)
    1dd5:	00 
    1dd6:	41 89 ca             	mov    %ecx,%r10d
    1dd9:	31 c9                	xor    %ecx,%ecx
    1ddb:	41 83 e2 c7          	and    $0xffffffc7,%r10d
    1ddf:	41 80 ff 03          	cmp    $0x3,%r15b
    1de3:	45 89 ef             	mov    %r13d,%r15d
    1de6:	0f 95 c1             	setne  %cl
    1de9:	83 e3 30             	and    $0x30,%ebx
    1dec:	41 83 e0 07          	and    $0x7,%r8d
    1df0:	44 88 94 24 e0 00 00 	mov    %r10b,0xe0(%rsp)
    1df7:	00 
    1df8:	48 83 f9 00          	cmp    $0x0,%rcx
    1dfc:	45 0f 45 fe          	cmovne %r14d,%r15d
    1e00:	49 ba aa 6a aa aa a5 	movabs $0x155a55a5aaaa6aaa,%r10
    1e07:	55 5a 15 
    1e0a:	89 d9                	mov    %ebx,%ecx
    1e0c:	89 fb                	mov    %edi,%ebx
    1e0e:	45 01 c0             	add    %r8d,%r8d
    1e11:	c0 eb 06             	shr    $0x6,%bl
    1e14:	0f b6 fb             	movzbl %bl,%edi
    1e17:	31 db                	xor    %ebx,%ebx
    1e19:	40 80 ff 03          	cmp    $0x3,%dil
    1e1d:	0f 94 c3             	sete   %bl
    1e20:	44 01 c1             	add    %r8d,%ecx
    1e23:	49 d3 ea             	shr    %cl,%r10
    1e26:	0f b6 4c 24 40       	movzbl 0x40(%rsp),%ecx
    1e2b:	41 83 e2 03          	and    $0x3,%r10d
    1e2f:	48 83 fb 00          	cmp    $0x0,%rbx
    1e33:	41 0f 45 f2          	cmovne %r10d,%esi
    1e37:	41 ba 4c 00 00 00    	mov    $0x4c,%r10d
    1e3d:	44 89 eb             	mov    %r13d,%ebx
    1e40:	49 d3 ea             	shr    %cl,%r10
    1e43:	0f b6 8c 24 90 00 00 	movzbl 0x90(%rsp),%ecx
    1e4a:	00 
    1e4b:	41 83 e2 01          	and    $0x1,%r10d
    1e4f:	c1 e1 04             	shl    $0x4,%ecx
    1e52:	49 83 fa 00          	cmp    $0x0,%r10
    1e56:	41 0f 45 de          	cmovne %r14d,%ebx
    1e5a:	01 df                	add    %ebx,%edi
    1e5c:	44 89 eb             	mov    %r13d,%ebx
    1e5f:	09 cf                	or     %ecx,%edi
    1e61:	31 c9                	xor    %ecx,%ecx
    1e63:	81 ff f4 0f 00 00    	cmp    $0xff4,%edi
    1e69:	0f 94 c1             	sete   %cl
    1e6c:	48 83 f9 00          	cmp    $0x0,%rcx
    1e70:	41 0f 45 de          	cmovne %r14d,%ebx
    1e74:	89 d1                	mov    %edx,%ecx
    1e76:	89 5c 24 20          	mov    %ebx,0x20(%rsp)
    1e7a:	31 db                	xor    %ebx,%ebx
    1e7c:	c5 fb f0 0d 7c f1 00 	vlddqu 0xf17c(%rip),%xmm1        # 11000 <extension_2op_table>
    1e83:	00 
    1e84:	c0 e9 06             	shr    $0x6,%cl
    1e87:	0f b6 f9             	movzbl %cl,%edi
    1e8a:	44 89 e1             	mov    %r12d,%ecx
    1e8d:	c1 e1 04             	shl    $0x4,%ecx
    1e90:	41 89 ca             	mov    %ecx,%r10d
    1e93:	41 0f b6 c9          	movzbl %r9b,%ecx
    1e97:	49 b9 00 80 80 80 80 	movabs $0x8080808080808000,%r9
    1e9e:	80 80 80 
    1ea1:	41 09 fa             	or     %edi,%r10d
    1ea4:	41 83 fa 11          	cmp    $0x11,%r10d
    1ea8:	0f 94 c3             	sete   %bl
    1eab:	01 c9                	add    %ecx,%ecx
    1ead:	c0 ea 03             	shr    $0x3,%dl
    1eb0:	42 8d 0c d9          	lea    (%rcx,%r11,8),%ecx
    1eb4:	41 bb 1a 05 0a 00    	mov    $0xa051a,%r11d
    1eba:	83 e2 07             	and    $0x7,%edx
    1ebd:	41 d3 eb             	shr    %cl,%r11d
    1ec0:	41 83 e3 03          	and    $0x3,%r11d
    1ec4:	48 83 fb 00          	cmp    $0x0,%rbx
    1ec8:	41 0f 45 f3          	cmovne %r11d,%esi
    1ecc:	44 8d 1c 12          	lea    (%rdx,%rdx,1),%r11d
    1ed0:	41 8d 4b 01          	lea    0x1(%r11),%ecx
    1ed4:	c1 e1 08             	shl    $0x8,%ecx
    1ed7:	44 09 d9             	or     %r11d,%ecx
    1eda:	41 83 fa 13          	cmp    $0x13,%r10d
    1ede:	c5 f9 6e f9          	vmovd  %ecx,%xmm7
    1ee2:	44 89 c1             	mov    %r8d,%ecx
    1ee5:	41 0f 94 c2          	sete   %r10b
    1ee9:	c1 e7 08             	shl    $0x8,%edi
    1eec:	c5 f9 70 c7 00       	vpshufd $0x0,%xmm7,%xmm0
    1ef1:	45 0f b6 d2          	movzbl %r10b,%r10d
    1ef5:	c4 e2 71 00 c0       	vpshufb %xmm0,%xmm1,%xmm0
    1efa:	c4 c1 f9 7e c3       	vmovq  %xmm0,%r11
    1eff:	41 d3 eb             	shr    %cl,%r11d
    1f02:	0f b6 4c 24 60       	movzbl 0x60(%rsp),%ecx
    1f07:	41 83 e3 03          	and    $0x3,%r11d
    1f0b:	89 4c 24 40          	mov    %ecx,0x40(%rsp)
    1f0f:	41 89 c8             	mov    %ecx,%r8d
    1f12:	49 83 fa 00          	cmp    $0x0,%r10
    1f16:	41 0f 45 f3          	cmovne %r11d,%esi
    1f1a:	41 89 cb             	mov    %ecx,%r11d
    1f1d:	44 89 e1             	mov    %r12d,%ecx
    1f20:	41 c1 e0 04          	shl    $0x4,%r8d
    1f24:	45 89 fc             	mov    %r15d,%r12d
    1f27:	c1 e1 0c             	shl    $0xc,%ecx
    1f2a:	44 89 c3             	mov    %r8d,%ebx
    1f2d:	44 09 c1             	or     %r8d,%ecx
    1f30:	09 d1                	or     %edx,%ecx
    1f32:	31 d2                	xor    %edx,%edx
    1f34:	09 cf                	or     %ecx,%edi
    1f36:	81 ff 32 13 00 00    	cmp    $0x1332,%edi
    1f3c:	0f b6 bc 24 e0 00 00 	movzbl 0xe0(%rsp),%edi
    1f43:	00 
    1f44:	0f 97 c2             	seta   %dl
    1f47:	48 83 fa 00          	cmp    $0x0,%rdx
    1f4b:	41 0f 45 f5          	cmovne %r13d,%esi
    1f4f:	31 d2                	xor    %edx,%edx
    1f51:	41 80 fb 03          	cmp    $0x3,%r11b
    1f55:	89 f1                	mov    %esi,%ecx
    1f57:	41 bb ff 00 00 00    	mov    $0xff,%r11d
    1f5d:	0f 94 c2             	sete   %dl
    1f60:	48 83 fa 00          	cmp    $0x0,%rdx
    1f64:	41 0f 45 cd          	cmovne %r13d,%ecx
    1f68:	8d 50 02             	lea    0x2(%rax),%edx
    1f6b:	89 4c 24 1c          	mov    %ecx,0x1c(%rsp)
    1f6f:	83 c0 03             	add    $0x3,%eax
    1f72:	0f b6 d2             	movzbl %dl,%edx
    1f75:	0f b6 c0             	movzbl %al,%eax
    1f78:	48 8d 72 03          	lea    0x3(%rdx),%rsi
    1f7c:	48 8d 4a 01          	lea    0x1(%rdx),%rcx
    1f80:	49 09 d1             	or     %rdx,%r9
    1f83:	48 c1 e6 18          	shl    $0x18,%rsi
    1f87:	48 c1 e1 08          	shl    $0x8,%rcx
    1f8b:	c4 c1 f9 6e c1       	vmovq  %r9,%xmm0
    1f90:	48 09 f1             	or     %rsi,%rcx
    1f93:	48 8d 70 01          	lea    0x1(%rax),%rsi
    1f97:	c4 c1 79 6c c6       	vpunpcklqdq %xmm14,%xmm0,%xmm0
    1f9c:	48 09 d1             	or     %rdx,%rcx
    1f9f:	48 83 c2 02          	add    $0x2,%rdx
    1fa3:	48 c1 e6 08          	shl    $0x8,%rsi
    1fa7:	c4 e2 59 00 c0       	vpshufb %xmm0,%xmm4,%xmm0
    1fac:	48 c1 e2 10          	shl    $0x10,%rdx
    1fb0:	c4 c1 f9 7e c0       	vmovq  %xmm0,%r8
    1fb5:	48 09 ca             	or     %rcx,%rdx
    1fb8:	48 b9 00 00 00 00 80 	movabs $0x8080808000000000,%rcx
    1fbf:	80 80 80 
    1fc2:	48 09 ca             	or     %rcx,%rdx
    1fc5:	c4 e1 f9 6e fa       	vmovq  %rdx,%xmm7
    1fca:	48 8d 50 03          	lea    0x3(%rax),%rdx
    1fce:	48 c1 e2 18          	shl    $0x18,%rdx
    1fd2:	c4 c1 41 6c c6       	vpunpcklqdq %xmm14,%xmm7,%xmm0
    1fd7:	48 09 f2             	or     %rsi,%rdx
    1fda:	48 8d 70 02          	lea    0x2(%rax),%rsi
    1fde:	c4 e2 59 00 c0       	vpshufb %xmm0,%xmm4,%xmm0
    1fe3:	48 09 c2             	or     %rax,%rdx
    1fe6:	48 c1 e6 10          	shl    $0x10,%rsi
    1fea:	c4 c1 f9 7e c1       	vmovq  %xmm0,%r9
    1fef:	48 09 f2             	or     %rsi,%rdx
    1ff2:	4c 89 4c 24 60       	mov    %r9,0x60(%rsp)
    1ff7:	45 89 c1             	mov    %r8d,%r9d
    1ffa:	48 09 ca             	or     %rcx,%rdx
    1ffd:	48 b9 00 80 80 80 80 	movabs $0x8080808080808000,%rcx
    2004:	80 80 80 
    2007:	48 09 c8             	or     %rcx,%rax
    200a:	c4 e1 f9 6e fa       	vmovq  %rdx,%xmm7
    200f:	40 80 ff 05          	cmp    $0x5,%dil
    2013:	44 89 e9             	mov    %r13d,%ecx
    2016:	c4 c1 41 6c c6       	vpunpcklqdq %xmm14,%xmm7,%xmm0
    201b:	c4 e1 f9 6e f8       	vmovq  %rax,%xmm7
    2020:	0f 94 c0             	sete   %al
    2023:	41 c1 e4 08          	shl    $0x8,%r12d
    2027:	0f b6 c0             	movzbl %al,%eax
    202a:	45 31 d2             	xor    %r10d,%r10d
    202d:	c4 e2 59 00 c0       	vpshufb %xmm0,%xmm4,%xmm0
    2032:	48 83 f8 00          	cmp    $0x0,%rax
    2036:	0f 45 4c 24 60       	cmovne 0x60(%rsp),%ecx
    203b:	0f b6 84 24 a0 00 00 	movzbl 0xa0(%rsp),%eax
    2042:	00 
    2043:	c4 e1 f9 7e c2       	vmovq  %xmm0,%rdx
    2048:	c4 c1 41 6c c6       	vpunpcklqdq %xmm14,%xmm7,%xmm0
    204d:	c4 e2 59 00 e0       	vpshufb %xmm0,%xmm4,%xmm4
    2052:	89 84 24 90 00 00 00 	mov    %eax,0x90(%rsp)
    2059:	44 09 e0             	or     %r12d,%eax
    205c:	3d 04 01 00 00       	cmp    $0x104,%eax
    2061:	41 0f 94 c2          	sete   %r10b
    2065:	41 c0 e9 06          	shr    $0x6,%r9b
    2069:	41 0f b6 c1          	movzbl %r9b,%eax
    206d:	45 89 d9             	mov    %r11d,%r9d
    2070:	41 c1 e7 10          	shl    $0x10,%r15d
    2074:	49 83 fa 00          	cmp    $0x0,%r10
    2078:	44 0f 45 c8          	cmovne %eax,%r9d
    207c:	44 89 4c 24 18       	mov    %r9d,0x18(%rsp)
    2081:	45 89 c1             	mov    %r8d,%r9d
    2084:	41 c0 e9 03          	shr    $0x3,%r9b
    2088:	44 89 ce             	mov    %r9d,%esi
    208b:	44 8b 4c 24 2c       	mov    0x2c(%rsp),%r9d
    2090:	83 e6 07             	and    $0x7,%esi
    2093:	42 8d 04 8d 00 00 00 	lea    0x0(,%r9,4),%eax
    209a:	00 
    209b:	83 e0 08             	and    $0x8,%eax
    209e:	09 f0                	or     %esi,%eax
    20a0:	44 89 de             	mov    %r11d,%esi
    20a3:	49 83 fa 00          	cmp    $0x0,%r10
    20a7:	0f 45 f0             	cmovne %eax,%esi
    20aa:	89 74 24 2c          	mov    %esi,0x2c(%rsp)
    20ae:	42 8d 34 cd 00 00 00 	lea    0x0(,%r9,8),%esi
    20b5:	00 
    20b6:	45 89 c1             	mov    %r8d,%r9d
    20b9:	45 0f b6 c0          	movzbl %r8b,%r8d
    20bd:	41 83 e1 07          	and    $0x7,%r9d
    20c1:	83 e6 08             	and    $0x8,%esi
    20c4:	44 89 c8             	mov    %r9d,%eax
    20c7:	45 89 e9             	mov    %r13d,%r9d
    20ca:	09 f0                	or     %esi,%eax
    20cc:	49 83 fa 00          	cmp    $0x0,%r10
    20d0:	44 0f 45 c8          	cmovne %eax,%r9d
    20d4:	40 0f b6 c7          	movzbl %dil,%eax
    20d8:	44 89 cf             	mov    %r9d,%edi
    20db:	c1 e7 08             	shl    $0x8,%edi
    20de:	81 e7 00 07 00 00    	and    $0x700,%edi
    20e4:	44 09 ff             	or     %r15d,%edi
    20e7:	09 c7                	or     %eax,%edi
    20e9:	81 ff 04 05 01 00    	cmp    $0x10504,%edi
    20ef:	40 0f 94 c7          	sete   %dil
    20f3:	41 09 c4             	or     %eax,%r12d
    20f6:	c4 e1 f9 7e e0       	vmovq  %xmm4,%rax
    20fb:	40 0f b6 ff          	movzbl %dil,%edi
    20ff:	0f b6 c0             	movzbl %al,%eax
    2102:	48 83 ff 00          	cmp    $0x0,%rdi
    2106:	0f 45 ca             	cmovne %edx,%ecx
    2109:	31 ff                	xor    %edi,%edi
    210b:	41 81 fc 44 01 00 00 	cmp    $0x144,%r12d
    2112:	40 0f 94 c7          	sete   %dil
    2116:	48 89 7c 24 10       	mov    %rdi,0x10(%rsp)
    211b:	44 89 ef             	mov    %r13d,%edi
    211e:	48 83 7c 24 10 00    	cmpq   $0x0,0x10(%rsp)
    2124:	0f 45 f8             	cmovne %eax,%edi
    2127:	31 c0                	xor    %eax,%eax
    2129:	41 81 fc 84 01 00 00 	cmp    $0x184,%r12d
    2130:	44 8b 64 24 40       	mov    0x40(%rsp),%r12d
    2135:	0f 94 c0             	sete   %al
    2138:	48 83 f8 00          	cmp    $0x0,%rax
    213c:	0f 45 ca             	cmovne %edx,%ecx
    213f:	31 d2                	xor    %edx,%edx
    2141:	80 bc 24 a0 00 00 00 	cmpb   $0x4,0xa0(%rsp)
    2148:	04 
    2149:	44 89 e8             	mov    %r13d,%eax
    214c:	0f 95 c2             	setne  %dl
    214f:	48 83 fa 00          	cmp    $0x0,%rdx
    2153:	41 0f 45 c6          	cmovne %r14d,%eax
    2157:	c1 e0 08             	shl    $0x8,%eax
    215a:	31 d2                	xor    %edx,%edx
    215c:	44 09 f8             	or     %r15d,%eax
    215f:	44 8b bc 24 90 00 00 	mov    0x90(%rsp),%r15d
    2166:	00 
    2167:	44 09 e0             	or     %r12d,%eax
    216a:	3d 01 01 01 00       	cmp    $0x10101,%eax
    216f:	0f 94 c2             	sete   %dl
    2172:	48 83 fa 00          	cmp    $0x0,%rdx
    2176:	41 0f 45 f8          	cmovne %r8d,%edi
    217a:	3d 02 01 01 00       	cmp    $0x10102,%eax
    217f:	48 0f be d7          	movsbq %dil,%rdx
    2183:	41 b8 04 00 00 00    	mov    $0x4,%r8d
    2189:	44 89 cf             	mov    %r9d,%edi
    218c:	0f 94 c0             	sete   %al
    218f:	44 09 fe             	or     %r15d,%esi
    2192:	0f b6 c0             	movzbl %al,%eax
    2195:	49 83 fa 00          	cmp    $0x0,%r10
    2199:	41 0f 45 f0          	cmovne %r8d,%esi
    219d:	48 83 f8 00          	cmp    $0x0,%rax
    21a1:	0f 45 4c 24 60       	cmovne 0x60(%rsp),%ecx
    21a6:	31 c0                	xor    %eax,%eax
    21a8:	48 85 d2             	test   %rdx,%rdx
    21ab:	89 c9                	mov    %ecx,%ecx
    21ad:	0f 94 c0             	sete   %al
    21b0:	48 83 f8 00          	cmp    $0x0,%rax
    21b4:	48 0f 45 d1          	cmovne %rcx,%rdx
    21b8:	31 c9                	xor    %ecx,%ecx
    21ba:	80 bc 24 e0 00 00 00 	cmpb   $0x4,0xe0(%rsp)
    21c1:	04 
    21c2:	40 0f b6 c6          	movzbl %sil,%eax
    21c6:	0f 94 c1             	sete   %cl
    21c9:	48 83 f9 00          	cmp    $0x0,%rcx
    21cd:	41 0f 45 c3          	cmovne %r11d,%eax
    21d1:	44 89 c9             	mov    %r9d,%ecx
    21d4:	41 89 c1             	mov    %eax,%r9d
    21d7:	83 e1 07             	and    $0x7,%ecx
    21da:	09 d9                	or     %ebx,%ecx
    21dc:	83 f9 05             	cmp    $0x5,%ecx
    21df:	0f 94 c1             	sete   %cl
    21e2:	0f b6 c9             	movzbl %cl,%ecx
    21e5:	48 83 f9 00          	cmp    $0x0,%rcx
    21e9:	41 0f 45 fb          	cmovne %r11d,%edi
    21ed:	31 c9                	xor    %ecx,%ecx
    21ef:	40 80 fe 04          	cmp    $0x4,%sil
    21f3:	0f 94 c1             	sete   %cl
    21f6:	44 09 fb             	or     %r15d,%ebx
    21f9:	31 c0                	xor    %eax,%eax
    21fb:	48 83 f9 00          	cmp    $0x0,%rcx
    21ff:	44 0f 45 cf          	cmovne %edi,%r9d
    2203:	83 fb 05             	cmp    $0x5,%ebx
    2206:	48 8b bc 24 98 00 00 	mov    0x98(%rsp),%rdi
    220d:	00 
    220e:	b9 10 00 00 00       	mov    $0x10,%ecx
    2213:	0f 94 c0             	sete   %al
    2216:	45 31 e4             	xor    %r12d,%r12d
    2219:	48 83 f8 00          	cmp    $0x0,%rax
    221d:	44 0f 45 c9          	cmovne %ecx,%r9d
    2221:	44 89 ce             	mov    %r9d,%esi
    2224:	e8 57 f1 ff ff       	call   1380 <register_value_select>
    2229:	8b 74 24 2c          	mov    0x2c(%rsp),%esi
    222d:	44 8b 54 24 28       	mov    0x28(%rsp),%r10d
    2232:	44 89 c9             	mov    %r9d,%ecx
    2235:	48 8b 9c 24 88 00 00 	mov    0x88(%rsp),%rbx
    223c:	00 
    223d:	49 89 c0             	mov    %rax,%r8
    2240:	48 83 f9 10          	cmp    $0x10,%rcx
    2244:	4c 0f 44 c3          	cmove  %rbx,%r8
    2248:	48 81 f9 ff 00 00 00 	cmp    $0xff,%rcx
    224f:	4d 0f 44 c4          	cmove  %r12,%r8
    2253:	44 89 c1             	mov    %r8d,%ecx
    2256:	49 83 fa 01          	cmp    $0x1,%r10
    225a:	4c 0f 44 c1          	cmove  %rcx,%r8
    225e:	83 fe 04             	cmp    $0x4,%esi
    2261:	0f 94 c0             	sete   %al
    2264:	0f b6 c0             	movzbl %al,%eax
    2267:	48 83 f8 00          	cmp    $0x0,%rax
    226b:	41 0f 45 f3          	cmovne %r11d,%esi
    226f:	e8 0c f1 ff ff       	call   1380 <register_value_select>
    2274:	89 f6                	mov    %esi,%esi
    2276:	41 bb 02 00 00 00    	mov    $0x2,%r11d
    227c:	48 83 fe 10          	cmp    $0x10,%rsi
    2280:	48 0f 44 c3          	cmove  %rbx,%rax
    2284:	48 81 fe ff 00 00 00 	cmp    $0xff,%rsi
    228b:	49 0f 44 c4          	cmove  %r12,%rax
    228f:	89 c1                	mov    %eax,%ecx
    2291:	45 89 f4             	mov    %r14d,%r12d
    2294:	49 83 fa 01          	cmp    $0x1,%r10
    2298:	48 0f 44 c1          	cmove  %rcx,%rax
    229c:	0f b6 4c 24 18       	movzbl 0x18(%rsp),%ecx
    22a1:	41 d3 e4             	shl    %cl,%r12d
    22a4:	49 63 cc             	movslq %r12d,%rcx
    22a7:	48 0f af c1          	imul   %rcx,%rax
    22ab:	4c 01 c0             	add    %r8,%rax
    22ae:	48 01 c2             	add    %rax,%rdx
    22b1:	8b 84 24 c0 00 00 00 	mov    0xc0(%rsp),%eax
    22b8:	83 e0 0f             	and    $0xf,%eax
    22bb:	8d 70 06             	lea    0x6(%rax),%esi
    22be:	e8 bd f0 ff ff       	call   1380 <register_value_select>
    22c3:	8b 74 24 1c          	mov    0x1c(%rsp),%esi
    22c7:	8b 5c 24 20          	mov    0x20(%rsp),%ebx
    22cb:	48 89 c1             	mov    %rax,%rcx
    22ce:	8b 44 24 34          	mov    0x34(%rsp),%eax
    22d2:	44 8b 44 24 30       	mov    0x30(%rsp),%r8d
    22d7:	48 83 f8 01          	cmp    $0x1,%rax
    22db:	48 0f 44 d1          	cmove  %rcx,%rdx
    22df:	8b 4c 24 38          	mov    0x38(%rsp),%ecx
    22e3:	41 09 d8             	or     %ebx,%r8d
    22e6:	83 e1 03             	and    $0x3,%ecx
    22e9:	83 c1 01             	add    $0x1,%ecx
    22ec:	48 83 f8 00          	cmp    $0x0,%rax
    22f0:	0f 45 f1             	cmovne %ecx,%esi
    22f3:	41 89 f2             	mov    %esi,%r10d
    22f6:	be 04 00 00 00       	mov    $0x4,%esi
    22fb:	e8 80 f0 ff ff       	call   1380 <register_value_select>
    2300:	8b 74 24 24          	mov    0x24(%rsp),%esi
    2304:	48 8b 9c 24 80 00 00 	mov    0x80(%rsp),%rbx
    230b:	00 
    230c:	31 c9                	xor    %ecx,%ecx
    230e:	49 83 f8 00          	cmp    $0x0,%r8
    2312:	45 0f 45 d3          	cmovne %r11d,%r10d
    2316:	49 83 f8 01          	cmp    $0x1,%r8
    231a:	48 0f 44 d0          	cmove  %rax,%rdx
    231e:	42 8d 04 16          	lea    (%rsi,%r10,1),%eax
    2322:	48 89 13             	mov    %rdx,(%rbx)
    2325:	48 8b 5c 24 08       	mov    0x8(%rsp),%rbx
    232a:	83 f8 02             	cmp    $0x2,%eax
    232d:	44 89 d0             	mov    %r10d,%eax
    2330:	0f 97 c1             	seta   %cl
    2333:	48 83 f9 00          	cmp    $0x0,%rcx
    2337:	41 0f 45 c6          	cmovne %r14d,%eax
    233b:	31 c9                	xor    %ecx,%ecx
    233d:	41 83 f9 10          	cmp    $0x10,%r9d
    2341:	0f 94 c1             	sete   %cl
    2344:	48 83 f9 00          	cmp    $0x0,%rcx
    2348:	41 0f 45 c5          	cmovne %r13d,%eax
    234c:	f6 05 b0 ea 00 00 08 	testb  $0x8,0xeab0(%rip)        # 10e03 <g_cpu_feature_indicator+0x3>
    2353:	0f 84 17 01 00 00    	je     2470 <ct_decode+0x1050>
    2359:	62 f1 7c 48 28 03    	vmovaps (%rbx),%zmm0
    235f:	62 f1 7c 48 28 4b 01 	vmovaps 0x40(%rbx),%zmm1
    2366:	62 f1 7c 48 28 53 02 	vmovaps 0x80(%rbx),%zmm2
    236d:	62 f1 7c 48 28 5b 03 	vmovaps 0xc0(%rbx),%zmm3
    2374:	62 f1 7c 48 28 63 04 	vmovaps 0x100(%rbx),%zmm4
    237b:	62 f1 7c 48 28 6b 05 	vmovaps 0x140(%rbx),%zmm5
    2382:	62 f1 7c 48 28 73 06 	vmovaps 0x180(%rbx),%zmm6
    2389:	62 f1 7c 48 28 7b 07 	vmovaps 0x1c0(%rbx),%zmm7
    2390:	62 71 7c 48 28 43 08 	vmovaps 0x200(%rbx),%zmm8
    2397:	62 71 7c 48 28 4b 09 	vmovaps 0x240(%rbx),%zmm9
    239e:	62 71 7c 48 28 53 0a 	vmovaps 0x280(%rbx),%zmm10
    23a5:	62 71 7c 48 28 5b 0b 	vmovaps 0x2c0(%rbx),%zmm11
    23ac:	62 71 7c 48 28 63 0c 	vmovaps 0x300(%rbx),%zmm12
    23b3:	62 71 7c 48 28 6b 0d 	vmovaps 0x340(%rbx),%zmm13
    23ba:	62 71 7c 48 28 73 0e 	vmovaps 0x380(%rbx),%zmm14
    23c1:	62 71 7c 48 28 7b 0f 	vmovaps 0x3c0(%rbx),%zmm15
    23c8:	48 8b 94 24 38 05 00 	mov    0x538(%rsp),%rdx
    23cf:	00 
    23d0:	64 48 2b 14 25 28 00 	sub    %fs:0x28,%rdx
    23d7:	00 00 
    23d9:	0f 85 09 01 00 00    	jne    24e8 <ct_decode+0x10c8>
    23df:	c5 f8 77             	vzeroupper
    23e2:	48 8d 65 d8          	lea    -0x28(%rbp),%rsp
    23e6:	5b                   	pop    %rbx
    23e7:	41 5c                	pop    %r12
    23e9:	41 5d                	pop    %r13
    23eb:	41 5e                	pop    %r14
    23ed:	41 5f                	pop    %r15
    23ef:	5d                   	pop    %rbp
    23f0:	c3                   	ret
    23f1:	0f 1f 80 00 00 00 00 	nopl   0x0(%rax)
    23f8:	c5 fc 29 00          	vmovaps %ymm0,(%rax)
    23fc:	c5 fc 29 48 20       	vmovaps %ymm1,0x20(%rax)
    2401:	c5 fc 29 50 40       	vmovaps %ymm2,0x40(%rax)
    2406:	c5 fc 29 58 60       	vmovaps %ymm3,0x60(%rax)
    240b:	c5 fc 29 a0 80 00 00 	vmovaps %ymm4,0x80(%rax)
    2412:	00 
    2413:	c5 fc 29 a8 a0 00 00 	vmovaps %ymm5,0xa0(%rax)
    241a:	00 
    241b:	c5 fc 29 b0 c0 00 00 	vmovaps %ymm6,0xc0(%rax)
    2422:	00 
    2423:	c5 fc 29 b8 e0 00 00 	vmovaps %ymm7,0xe0(%rax)
    242a:	00 
    242b:	c5 7c 29 80 00 01 00 	vmovaps %ymm8,0x100(%rax)
    2432:	00 
    2433:	c5 7c 29 88 20 01 00 	vmovaps %ymm9,0x120(%rax)
    243a:	00 
    243b:	c5 7c 29 90 40 01 00 	vmovaps %ymm10,0x140(%rax)
    2442:	00 
    2443:	c5 7c 29 98 60 01 00 	vmovaps %ymm11,0x160(%rax)
    244a:	00 
    244b:	c5 7c 29 a0 80 01 00 	vmovaps %ymm12,0x180(%rax)
    2452:	00 
    2453:	c5 7c 29 a8 a0 01 00 	vmovaps %ymm13,0x1a0(%rax)
    245a:	00 
    245b:	c5 7c 29 b0 c0 01 00 	vmovaps %ymm14,0x1c0(%rax)
    2462:	00 
    2463:	c5 7c 29 b8 e0 01 00 	vmovaps %ymm15,0x1e0(%rax)
    246a:	00 
    246b:	e9 78 f0 ff ff       	jmp    14e8 <ct_decode+0xc8>
    2470:	c5 fc 28 03          	vmovaps (%rbx),%ymm0
    2474:	c5 fc 28 4b 20       	vmovaps 0x20(%rbx),%ymm1
    2479:	c5 fc 28 53 40       	vmovaps 0x40(%rbx),%ymm2
    247e:	c5 fc 28 5b 60       	vmovaps 0x60(%rbx),%ymm3
    2483:	c5 fc 28 a3 80 00 00 	vmovaps 0x80(%rbx),%ymm4
    248a:	00 
    248b:	c5 fc 28 ab a0 00 00 	vmovaps 0xa0(%rbx),%ymm5
    2492:	00 
    2493:	c5 fc 28 b3 c0 00 00 	vmovaps 0xc0(%rbx),%ymm6
    249a:	00 
    249b:	c5 fc 28 bb e0 00 00 	vmovaps 0xe0(%rbx),%ymm7
    24a2:	00 
    24a3:	c5 7c 28 83 00 01 00 	vmovaps 0x100(%rbx),%ymm8
    24aa:	00 
    24ab:	c5 7c 28 8b 20 01 00 	vmovaps 0x120(%rbx),%ymm9
    24b2:	00 
    24b3:	c5 7c 28 93 40 01 00 	vmovaps 0x140(%rbx),%ymm10
    24ba:	00 
    24bb:	c5 7c 28 9b 60 01 00 	vmovaps 0x160(%rbx),%ymm11
    24c2:	00 
    24c3:	c5 7c 28 a3 80 01 00 	vmovaps 0x180(%rbx),%ymm12
    24ca:	00 
    24cb:	c5 7c 28 ab a0 01 00 	vmovaps 0x1a0(%rbx),%ymm13
    24d2:	00 
    24d3:	c5 7c 28 b3 c0 01 00 	vmovaps 0x1c0(%rbx),%ymm14
    24da:	00 
    24db:	c5 7c 28 bb e0 01 00 	vmovaps 0x1e0(%rbx),%ymm15
    24e2:	00 
    24e3:	e9 e0 fe ff ff       	jmp    23c8 <ct_decode+0xfa8>
    24e8:	c5 f8 77             	vzeroupper
    24eb:	e8 30 90 00 00       	call   b520 <__stack_chk_fail>

00000000000024f0 <_ZL22init_rts_contexts_emasP9_layout_tS0_m>:
    24f0:	48 39 f7             	cmp    %rsi,%rdi
    24f3:	0f 83 f7 01 00 00    	jae    26f0 <_ZL22init_rts_contexts_emasP9_layout_tS0_m+0x200>
    24f9:	41 57                	push   %r15
    24fb:	41 56                	push   %r14
    24fd:	49 89 d6             	mov    %rdx,%r14
    2500:	41 55                	push   %r13
    2502:	49 89 f5             	mov    %rsi,%r13
    2505:	41 54                	push   %r12
    2507:	55                   	push   %rbp
    2508:	53                   	push   %rbx
    2509:	48 89 fb             	mov    %rdi,%rbx
    250c:	48 83 ec 08          	sub    $0x8,%rsp
    2510:	66 f7 03 00 10       	testw  $0x1000,(%rbx)
    2515:	0f 85 d5 00 00 00    	jne    25f0 <_ZL22init_rts_contexts_emasP9_layout_tS0_m+0x100>
    251b:	48 8b 6b 08          	mov    0x8(%rbx),%rbp
    251f:	e8 dd a5 00 00       	call   cb01 <get_enclave_base>
    2524:	44 8b 63 04          	mov    0x4(%rbx),%r12d
    2528:	48 8b 4b 18          	mov    0x18(%rbx),%rcx
    252c:	4c 01 f5             	add    %r14,%rbp
    252f:	48 01 c5             	add    %rax,%rbp
    2532:	49 c1 e4 0c          	shl    $0xc,%r12
    2536:	48 85 c9             	test   %rcx,%rcx
    2539:	0f 84 81 00 00 00    	je     25c0 <_ZL22init_rts_contexts_emasP9_layout_tS0_m+0xd0>
    253f:	0f b7 43 02          	movzwl 0x2(%rbx),%eax
    2543:	a8 04                	test   $0x4,%al
    2545:	75 79                	jne    25c0 <_ZL22init_rts_contexts_emasP9_layout_tS0_m+0xd0>
    2547:	89 c2                	mov    %eax,%edx
    2549:	41 89 c7             	mov    %eax,%r15d
    254c:	83 e2 10             	and    $0x10,%edx
    254f:	41 83 e7 08          	and    $0x8,%r15d
    2553:	a8 01                	test   $0x1,%al
    2555:	0f 84 e5 00 00 00    	je     2640 <_ZL22init_rts_contexts_emasP9_layout_tS0_m+0x150>
    255b:	66 85 d2             	test   %dx,%dx
    255e:	0f 85 3c 01 00 00    	jne    26a0 <_ZL22init_rts_contexts_emasP9_layout_tS0_m+0x1b0>
    2564:	0f b7 03             	movzwl (%rbx),%eax
    2567:	66 45 85 ff          	test   %r15w,%r15w
    256b:	0f 85 e1 00 00 00    	jne    2652 <_ZL22init_rts_contexts_emasP9_layout_tS0_m+0x162>
    2571:	66 83 f8 04          	cmp    $0x4,%ax
    2575:	0f 84 65 01 00 00    	je     26e0 <_ZL22init_rts_contexts_emasP9_layout_tS0_m+0x1f0>
    257b:	83 e1 07             	and    $0x7,%ecx
    257e:	ba 80 02 00 00       	mov    $0x280,%edx
    2583:	45 31 c9             	xor    %r9d,%r9d
    2586:	45 31 c0             	xor    %r8d,%r8d
    2589:	4c 89 e6             	mov    %r12,%rsi
    258c:	48 89 ef             	mov    %rbp,%rdi
    258f:	e8 dc 55 00 00       	call   7b70 <mm_init_ema>
    2594:	85 c0                	test   %eax,%eax
    2596:	75 44                	jne    25dc <_ZL22init_rts_contexts_emasP9_layout_tS0_m+0xec>
    2598:	0f 1f 84 00 00 00 00 	nopl   0x0(%rax,%rax,1)
    259f:	00 
    25a0:	48 83 c3 20          	add    $0x20,%rbx
    25a4:	4c 39 eb             	cmp    %r13,%rbx
    25a7:	0f 82 63 ff ff ff    	jb     2510 <_ZL22init_rts_contexts_emasP9_layout_tS0_m+0x20>
    25ad:	48 83 c4 08          	add    $0x8,%rsp
    25b1:	31 c0                	xor    %eax,%eax
    25b3:	5b                   	pop    %rbx
    25b4:	5d                   	pop    %rbp
    25b5:	41 5c                	pop    %r12
    25b7:	41 5d                	pop    %r13
    25b9:	41 5e                	pop    %r14
    25bb:	41 5f                	pop    %r15
    25bd:	c3                   	ret
    25be:	66 90                	xchg   %ax,%ax
    25c0:	45 31 c9             	xor    %r9d,%r9d
    25c3:	45 31 c0             	xor    %r8d,%r8d
    25c6:	31 c9                	xor    %ecx,%ecx
    25c8:	ba 81 00 00 00       	mov    $0x81,%edx
    25cd:	4c 89 e6             	mov    %r12,%rsi
    25d0:	48 89 ef             	mov    %rbp,%rdi
    25d3:	e8 98 55 00 00       	call   7b70 <mm_init_ema>
    25d8:	85 c0                	test   %eax,%eax
    25da:	74 c4                	je     25a0 <_ZL22init_rts_contexts_emasP9_layout_tS0_m+0xb0>
    25dc:	b8 01 00 00 00       	mov    $0x1,%eax
    25e1:	48 83 c4 08          	add    $0x8,%rsp
    25e5:	5b                   	pop    %rbx
    25e6:	5d                   	pop    %rbp
    25e7:	41 5c                	pop    %r12
    25e9:	41 5d                	pop    %r13
    25eb:	41 5e                	pop    %r14
    25ed:	41 5f                	pop    %r15
    25ef:	c3                   	ret
    25f0:	8b 43 04             	mov    0x4(%rbx),%eax
    25f3:	31 ed                	xor    %ebp,%ebp
    25f5:	45 31 e4             	xor    %r12d,%r12d
    25f8:	85 c0                	test   %eax,%eax
    25fa:	74 a4                	je     25a0 <_ZL22init_rts_contexts_emasP9_layout_tS0_m+0xb0>
    25fc:	0f b7 7b 02          	movzwl 0x2(%rbx),%edi
    2600:	4c 03 63 08          	add    0x8(%rbx),%r12
    2604:	48 89 de             	mov    %rbx,%rsi
    2607:	4c 89 e2             	mov    %r12,%rdx
    260a:	f7 df                	neg    %edi
    260c:	48 63 ff             	movslq %edi,%rdi
    260f:	48 c1 e7 05          	shl    $0x5,%rdi
    2613:	48 01 df             	add    %rbx,%rdi
    2616:	e8 d5 fe ff ff       	call   24f0 <_ZL22init_rts_contexts_emasP9_layout_tS0_m>
    261b:	85 c0                	test   %eax,%eax
    261d:	75 c2                	jne    25e1 <_ZL22init_rts_contexts_emasP9_layout_tS0_m+0xf1>
    261f:	83 c5 01             	add    $0x1,%ebp
    2622:	3b 6b 04             	cmp    0x4(%rbx),%ebp
    2625:	72 d5                	jb     25fc <_ZL22init_rts_contexts_emasP9_layout_tS0_m+0x10c>
    2627:	48 83 c3 20          	add    $0x20,%rbx
    262b:	4c 39 eb             	cmp    %r13,%rbx
    262e:	0f 82 dc fe ff ff    	jb     2510 <_ZL22init_rts_contexts_emasP9_layout_tS0_m+0x20>
    2634:	e9 74 ff ff ff       	jmp    25ad <_ZL22init_rts_contexts_emasP9_layout_tS0_m+0xbd>
    2639:	0f 1f 80 00 00 00 00 	nopl   0x0(%rax)
    2640:	66 85 d2             	test   %dx,%dx
    2643:	75 5b                	jne    26a0 <_ZL22init_rts_contexts_emasP9_layout_tS0_m+0x1b0>
    2645:	66 45 85 ff          	test   %r15w,%r15w
    2649:	0f 84 51 ff ff ff    	je     25a0 <_ZL22init_rts_contexts_emasP9_layout_tS0_m+0xb0>
    264f:	0f b7 03             	movzwl (%rbx),%eax
    2652:	8d 50 ef             	lea    -0x11(%rax),%edx
    2655:	66 83 fa 01          	cmp    $0x1,%dx
    2659:	76 0b                	jbe    2666 <_ZL22init_rts_contexts_emasP9_layout_tS0_m+0x176>
    265b:	ba e4 02 00 00       	mov    $0x2e4,%edx
    2660:	66 83 f8 07          	cmp    $0x7,%ax
    2664:	75 05                	jne    266b <_ZL22init_rts_contexts_emasP9_layout_tS0_m+0x17b>
    2666:	ba d4 02 00 00       	mov    $0x2d4,%edx
    266b:	45 31 c9             	xor    %r9d,%r9d
    266e:	45 31 c0             	xor    %r8d,%r8d
    2671:	31 c9                	xor    %ecx,%ecx
    2673:	4c 89 e6             	mov    %r12,%rsi
    2676:	48 89 ef             	mov    %rbp,%rdi
    2679:	e8 f2 55 00 00       	call   7c70 <mm_alloc>
    267e:	85 c0                	test   %eax,%eax
    2680:	0f 85 56 ff ff ff    	jne    25dc <_ZL22init_rts_contexts_emasP9_layout_tS0_m+0xec>
    2686:	48 83 c3 20          	add    $0x20,%rbx
    268a:	4c 39 eb             	cmp    %r13,%rbx
    268d:	0f 82 7d fe ff ff    	jb     2510 <_ZL22init_rts_contexts_emasP9_layout_tS0_m+0x20>
    2693:	e9 15 ff ff ff       	jmp    25ad <_ZL22init_rts_contexts_emasP9_layout_tS0_m+0xbd>
    2698:	0f 1f 84 00 00 00 00 	nopl   0x0(%rax,%rax,1)
    269f:	00 
    26a0:	45 31 c9             	xor    %r9d,%r9d
    26a3:	45 31 c0             	xor    %r8d,%r8d
    26a6:	b9 03 00 00 00       	mov    $0x3,%ecx
    26ab:	ba 80 00 00 00       	mov    $0x80,%edx
    26b0:	4c 89 e6             	mov    %r12,%rsi
    26b3:	48 89 ef             	mov    %rbp,%rdi
    26b6:	e8 b5 54 00 00       	call   7b70 <mm_init_ema>
    26bb:	85 c0                	test   %eax,%eax
    26bd:	0f 85 19 ff ff ff    	jne    25dc <_ZL22init_rts_contexts_emasP9_layout_tS0_m+0xec>
    26c3:	4c 89 e6             	mov    %r12,%rsi
    26c6:	48 89 ef             	mov    %rbp,%rdi
    26c9:	e8 e2 55 00 00       	call   7cb0 <mm_dealloc>
    26ce:	85 c0                	test   %eax,%eax
    26d0:	0f 84 6f ff ff ff    	je     2645 <_ZL22init_rts_contexts_emasP9_layout_tS0_m+0x155>
    26d6:	e9 01 ff ff ff       	jmp    25dc <_ZL22init_rts_contexts_emasP9_layout_tS0_m+0xec>
    26db:	0f 1f 44 00 00       	nopl   0x0(%rax,%rax,1)
    26e0:	ba 80 01 00 00       	mov    $0x180,%edx
    26e5:	31 c9                	xor    %ecx,%ecx
    26e7:	e9 97 fe ff ff       	jmp    2583 <_ZL22init_rts_contexts_emasP9_layout_tS0_m+0x93>
    26ec:	0f 1f 40 00          	nopl   0x0(%rax)
    26f0:	31 c0                	xor    %eax,%eax
    26f2:	c3                   	ret
    26f3:	66 2e 0f 1f 84 00 00 	cs nopw 0x0(%rax,%rax,1)
    26fa:	00 00 00 
    26fd:	0f 1f 00             	nopl   (%rax)

0000000000002700 <init_rts_emas>:
    2700:	f3 0f 1e fa          	endbr64
    2704:	55                   	push   %rbp
    2705:	48 89 d5             	mov    %rdx,%rbp
    2708:	53                   	push   %rbx
    2709:	48 89 f3             	mov    %rsi,%rbx
    270c:	48 83 ec 08          	sub    $0x8,%rsp
    2710:	e8 9b 2d 00 00       	call   54b0 <init_segment_emas>
    2715:	85 c0                	test   %eax,%eax
    2717:	74 07                	je     2720 <init_rts_emas+0x20>
    2719:	48 83 c4 08          	add    $0x8,%rsp
    271d:	5b                   	pop    %rbx
    271e:	5d                   	pop    %rbp
    271f:	c3                   	ret
    2720:	48 83 c4 08          	add    $0x8,%rsp
    2724:	48 89 ee             	mov    %rbp,%rsi
    2727:	48 89 df             	mov    %rbx,%rdi
    272a:	31 d2                	xor    %edx,%edx
    272c:	5b                   	pop    %rbx
    272d:	5d                   	pop    %rbp
    272e:	e9 bd fd ff ff       	jmp    24f0 <_ZL22init_rts_contexts_emasP9_layout_tS0_m>
    2733:	66 2e 0f 1f 84 00 00 	cs nopw 0x0(%rax,%rax,1)
    273a:	00 00 00 
    273d:	0f 1f 00             	nopl   (%rax)

0000000000002740 <sgx_mm_alloc_ocall>:
    2740:	f3 0f 1e fa          	endbr64
    2744:	41 56                	push   %r14
    2746:	41 89 ce             	mov    %ecx,%r14d
    2749:	41 55                	push   %r13
    274b:	49 89 fd             	mov    %rdi,%r13
    274e:	bf 20 00 00 00       	mov    $0x20,%edi
    2753:	41 54                	push   %r12
    2755:	49 89 f4             	mov    %rsi,%r12
    2758:	55                   	push   %rbp
    2759:	89 d5                	mov    %edx,%ebp
    275b:	53                   	push   %rbx
    275c:	e8 9f 03 00 00       	call   2b00 <sgx_ocalloc>
    2761:	48 85 c0             	test   %rax,%rax
    2764:	74 4a                	je     27b0 <sgx_mm_alloc_ocall+0x70>
    2766:	89 68 18             	mov    %ebp,0x18(%rax)
    2769:	48 89 c6             	mov    %rax,%rsi
    276c:	bf fa ff ff ff       	mov    $0xfffffffa,%edi
    2771:	48 89 c3             	mov    %rax,%rbx
    2774:	4c 89 68 08          	mov    %r13,0x8(%rax)
    2778:	bd 0e 00 00 00       	mov    $0xe,%ebp
    277d:	4c 89 60 10          	mov    %r12,0x10(%rax)
    2781:	44 89 70 1c          	mov    %r14d,0x1c(%rax)
    2785:	e8 e6 16 00 00       	call   3e70 <sgx_ocall>
    278a:	85 c0                	test   %eax,%eax
    278c:	74 12                	je     27a0 <sgx_mm_alloc_ocall+0x60>
    278e:	e8 4d 04 00 00       	call   2be0 <sgx_ocfree>
    2793:	5b                   	pop    %rbx
    2794:	89 e8                	mov    %ebp,%eax
    2796:	5d                   	pop    %rbp
    2797:	41 5c                	pop    %r12
    2799:	41 5d                	pop    %r13
    279b:	41 5e                	pop    %r14
    279d:	c3                   	ret
    279e:	66 90                	xchg   %ax,%ax
    27a0:	8b 03                	mov    (%rbx),%eax
    27a2:	f7 d8                	neg    %eax
    27a4:	19 ed                	sbb    %ebp,%ebp
    27a6:	83 e5 0e             	and    $0xe,%ebp
    27a9:	eb e3                	jmp    278e <sgx_mm_alloc_ocall+0x4e>
    27ab:	0f 1f 44 00 00       	nopl   0x0(%rax,%rax,1)
    27b0:	e8 2b 04 00 00       	call   2be0 <sgx_ocfree>
    27b5:	bd 01 00 00 00       	mov    $0x1,%ebp
    27ba:	5b                   	pop    %rbx
    27bb:	89 e8                	mov    %ebp,%eax
    27bd:	5d                   	pop    %rbp
    27be:	41 5c                	pop    %r12
    27c0:	41 5d                	pop    %r13
    27c2:	41 5e                	pop    %r14
    27c4:	c3                   	ret
    27c5:	66 2e 0f 1f 84 00 00 	cs nopw 0x0(%rax,%rax,1)
    27cc:	00 00 00 
    27cf:	90                   	nop

00000000000027d0 <sgx_mm_modify_ocall>:
    27d0:	f3 0f 1e fa          	endbr64
    27d4:	41 56                	push   %r14
    27d6:	41 89 ce             	mov    %ecx,%r14d
    27d9:	41 55                	push   %r13
    27db:	49 89 fd             	mov    %rdi,%r13
    27de:	bf 20 00 00 00       	mov    $0x20,%edi
    27e3:	41 54                	push   %r12
    27e5:	49 89 f4             	mov    %rsi,%r12
    27e8:	55                   	push   %rbp
    27e9:	89 d5                	mov    %edx,%ebp
    27eb:	53                   	push   %rbx
    27ec:	e8 0f 03 00 00       	call   2b00 <sgx_ocalloc>
    27f1:	48 85 c0             	test   %rax,%rax
    27f4:	74 4a                	je     2840 <sgx_mm_modify_ocall+0x70>
    27f6:	89 68 18             	mov    %ebp,0x18(%rax)
    27f9:	48 89 c6             	mov    %rax,%rsi
    27fc:	bf f9 ff ff ff       	mov    $0xfffffff9,%edi
    2801:	48 89 c3             	mov    %rax,%rbx
    2804:	4c 89 68 08          	mov    %r13,0x8(%rax)
    2808:	bd 0e 00 00 00       	mov    $0xe,%ebp
    280d:	4c 89 60 10          	mov    %r12,0x10(%rax)
    2811:	44 89 70 1c          	mov    %r14d,0x1c(%rax)
    2815:	e8 56 16 00 00       	call   3e70 <sgx_ocall>
    281a:	85 c0                	test   %eax,%eax
    281c:	74 12                	je     2830 <sgx_mm_modify_ocall+0x60>
    281e:	e8 bd 03 00 00       	call   2be0 <sgx_ocfree>
    2823:	5b                   	pop    %rbx
    2824:	89 e8                	mov    %ebp,%eax
    2826:	5d                   	pop    %rbp
    2827:	41 5c                	pop    %r12
    2829:	41 5d                	pop    %r13
    282b:	41 5e                	pop    %r14
    282d:	c3                   	ret
    282e:	66 90                	xchg   %ax,%ax
    2830:	8b 03                	mov    (%rbx),%eax
    2832:	f7 d8                	neg    %eax
    2834:	19 ed                	sbb    %ebp,%ebp
    2836:	83 e5 0e             	and    $0xe,%ebp
    2839:	eb e3                	jmp    281e <sgx_mm_modify_ocall+0x4e>
    283b:	0f 1f 44 00 00       	nopl   0x0(%rax,%rax,1)
    2840:	e8 9b 03 00 00       	call   2be0 <sgx_ocfree>
    2845:	bd 01 00 00 00       	mov    $0x1,%ebp
    284a:	5b                   	pop    %rbx
    284b:	89 e8                	mov    %ebp,%eax
    284d:	5d                   	pop    %rbp
    284e:	41 5c                	pop    %r12
    2850:	41 5d                	pop    %r13
    2852:	41 5e                	pop    %r14
    2854:	c3                   	ret
    2855:	66 2e 0f 1f 84 00 00 	cs nopw 0x0(%rax,%rax,1)
    285c:	00 00 00 
    285f:	90                   	nop

0000000000002860 <sgx_mm_register_pfhandler>:
    2860:	f3 0f 1e fa          	endbr64
    2864:	31 c0                	xor    %eax,%eax
    2866:	48 83 3d 0a 10 01 00 	cmpq   $0x0,0x1100a(%rip)        # 13878 <g_mm_pfhandler>
    286d:	00 
    286e:	74 08                	je     2878 <sgx_mm_register_pfhandler+0x18>
    2870:	c3                   	ret
    2871:	0f 1f 80 00 00 00 00 	nopl   0x0(%rax)
    2878:	48 89 3d f9 0f 01 00 	mov    %rdi,0x10ff9(%rip)        # 13878 <g_mm_pfhandler>
    287f:	b8 01 00 00 00       	mov    $0x1,%eax
    2884:	c3                   	ret
    2885:	66 2e 0f 1f 84 00 00 	cs nopw 0x0(%rax,%rax,1)
    288c:	00 00 00 
    288f:	90                   	nop

0000000000002890 <sgx_mm_mutex_create>:
    2890:	f3 0f 1e fa          	endbr64
    2894:	48 83 ec 08          	sub    $0x8,%rsp
    2898:	bf 18 00 00 00       	mov    $0x18,%edi
    289d:	e8 ee 60 00 00       	call   8990 <dlmalloc>
    28a2:	48 85 c0             	test   %rax,%rax
    28a5:	74 16                	je     28bd <sgx_mm_mutex_create+0x2d>
    28a7:	48 c7 00 00 00 00 00 	movq   $0x0,(%rax)
    28ae:	c7 40 08 00 00 00 00 	movl   $0x0,0x8(%rax)
    28b5:	48 c7 40 10 00 00 00 	movq   $0x0,0x10(%rax)
    28bc:	00 
    28bd:	48 83 c4 08          	add    $0x8,%rsp
    28c1:	c3                   	ret
    28c2:	66 2e 0f 1f 84 00 00 	cs nopw 0x0(%rax,%rax,1)
    28c9:	00 00 00 
    28cc:	0f 1f 40 00          	nopl   0x0(%rax)

00000000000028d0 <sgx_mm_mutex_lock>:
    28d0:	f3 0f 1e fa          	endbr64
    28d4:	53                   	push   %rbx
    28d5:	48 89 fb             	mov    %rdi,%rbx
    28d8:	0f 1f 84 00 00 00 00 	nopl   0x0(%rax,%rax,1)
    28df:	00 
    28e0:	48 89 df             	mov    %rbx,%rdi
    28e3:	e8 48 8c 00 00       	call   b530 <sgx_thread_spin_trylock>
    28e8:	85 c0                	test   %eax,%eax
    28ea:	75 f4                	jne    28e0 <sgx_mm_mutex_lock+0x10>
    28ec:	5b                   	pop    %rbx
    28ed:	c3                   	ret
    28ee:	66 90                	xchg   %ax,%ax

00000000000028f0 <sgx_mm_mutex_unlock>:
    28f0:	f3 0f 1e fa          	endbr64
    28f4:	e9 c7 8c 00 00       	jmp    b5c0 <sgx_thread_spin_unlock>
    28f9:	0f 1f 80 00 00 00 00 	nopl   0x0(%rax)

0000000000002900 <sgx_mm_is_within_enclave>:
    2900:	f3 0f 1e fa          	endbr64
    2904:	48 83 ec 08          	sub    $0x8,%rsp
    2908:	e8 33 01 00 00       	call   2a40 <sgx_is_within_enclave>
    290d:	85 c0                	test   %eax,%eax
    290f:	0f 95 c0             	setne  %al
    2912:	48 83 c4 08          	add    $0x8,%rsp
    2916:	c3                   	ret
    2917:	66 0f 1f 84 00 00 00 	nopw   0x0(%rax,%rax,1)
    291e:	00 00 

0000000000002920 <init_optimized_libs>:
    2920:	f3 0f 1e fa          	endbr64
    2924:	41 54                	push   %r12
    2926:	49 89 d4             	mov    %rdx,%r12
    2929:	55                   	push   %rbp
    292a:	48 89 f5             	mov    %rsi,%rbp
    292d:	53                   	push   %rbx
    292e:	48 89 fb             	mov    %rdi,%rbx
    2931:	e8 d7 a1 00 00       	call   cb0d <get_enclave_state>
    2936:	83 f8 01             	cmp    $0x1,%eax
    2939:	0f 85 d6 00 00 00    	jne    2a15 <init_optimized_libs+0xf5>
    293f:	48 b8 ff ff ff ff ff 	movabs $0xffffffffffffff,%rax
    2946:	ff ff 00 
    2949:	48 89 da             	mov    %rbx,%rdx
    294c:	48 21 c2             	and    %rax,%rdx
    294f:	48 39 d8             	cmp    %rbx,%rax
    2952:	48 0f 42 da          	cmovb  %rdx,%rbx
    2956:	48 81 fb ff 01 00 00 	cmp    $0x1ff,%rbx
    295d:	0f 86 b2 00 00 00    	jbe    2a15 <init_optimized_libs+0xf5>
    2963:	f6 c3 20             	test   $0x20,%bl
    2966:	74 0e                	je     2976 <init_optimized_libs+0x56>
    2968:	48 89 d8             	mov    %rbx,%rax
    296b:	48 f7 d0             	not    %rax
    296e:	a8 1f                	test   $0x1f,%al
    2970:	0f 85 9f 00 00 00    	jne    2a15 <init_optimized_libs+0xf5>
    2976:	f6 c3 40             	test   $0x40,%bl
    2979:	74 0e                	je     2989 <init_optimized_libs+0x69>
    297b:	48 89 d8             	mov    %rbx,%rax
    297e:	48 f7 d0             	not    %rax
    2981:	a8 3f                	test   $0x3f,%al
    2983:	0f 85 8c 00 00 00    	jne    2a15 <init_optimized_libs+0xf5>
    2989:	f6 c3 80             	test   $0x80,%bl
    298c:	74 0a                	je     2998 <init_optimized_libs+0x78>
    298e:	48 89 d8             	mov    %rbx,%rax
    2991:	48 f7 d0             	not    %rax
    2994:	a8 7f                	test   $0x7f,%al
    2996:	75 7d                	jne    2a15 <init_optimized_libs+0xf5>
    2998:	f6 c7 01             	test   $0x1,%bh
    299b:	74 0b                	je     29a8 <init_optimized_libs+0x88>
    299d:	0f b6 c3             	movzbl %bl,%eax
    29a0:	48 3d ff 00 00 00    	cmp    $0xff,%rax
    29a6:	75 6d                	jne    2a15 <init_optimized_libs+0xf5>
    29a8:	f6 c7 02             	test   $0x2,%bh
    29ab:	74 0d                	je     29ba <init_optimized_libs+0x9a>
    29ad:	48 89 d8             	mov    %rbx,%rax
    29b0:	48 f7 d0             	not    %rax
    29b3:	a9 ff 01 00 00       	test   $0x1ff,%eax
    29b8:	75 5b                	jne    2a15 <init_optimized_libs+0xf5>
    29ba:	f6 c7 04             	test   $0x4,%bh
    29bd:	75 49                	jne    2a08 <init_optimized_libs+0xe8>
    29bf:	4c 89 e0             	mov    %r12,%rax
    29c2:	48 f7 d0             	not    %rax
    29c5:	a8 06                	test   $0x6,%al
    29c7:	74 57                	je     2a20 <init_optimized_libs+0x100>
    29c9:	48 b8 ff 7f 12 86 08 	movabs $0xfffe200886127fff,%rax
    29d0:	20 fe ff 
    29d3:	48 21 c3             	and    %rax,%rbx
    29d6:	4c 8d 25 23 e4 00 00 	lea    0xe423(%rip),%r12        # 10e00 <g_cpu_feature_indicator>
    29dd:	48 89 df             	mov    %rbx,%rdi
    29e0:	49 89 1c 24          	mov    %rbx,(%r12)
    29e4:	e8 17 8b 00 00       	call   b500 <sgx_init_string_lib>
    29e9:	85 c0                	test   %eax,%eax
    29eb:	75 28                	jne    2a15 <init_optimized_libs+0xf5>
    29ed:	49 8b 3c 24          	mov    (%r12),%rdi
    29f1:	48 89 ee             	mov    %rbp,%rsi
    29f4:	e8 07 90 00 00       	call   ba00 <sgx_init_crypto_lib>
    29f9:	5b                   	pop    %rbx
    29fa:	5d                   	pop    %rbp
    29fb:	f7 d8                	neg    %eax
    29fd:	41 5c                	pop    %r12
    29ff:	19 c0                	sbb    %eax,%eax
    2a01:	c3                   	ret
    2a02:	66 0f 1f 44 00 00    	nopw   0x0(%rax,%rax,1)
    2a08:	48 89 d8             	mov    %rbx,%rax
    2a0b:	48 f7 d0             	not    %rax
    2a0e:	a9 ff 03 00 00       	test   $0x3ff,%eax
    2a13:	74 aa                	je     29bf <init_optimized_libs+0x9f>
    2a15:	5b                   	pop    %rbx
    2a16:	b8 ff ff ff ff       	mov    $0xffffffff,%eax
    2a1b:	5d                   	pop    %rbp
    2a1c:	41 5c                	pop    %r12
    2a1e:	c3                   	ret
    2a1f:	90                   	nop
    2a20:	4c 89 e0             	mov    %r12,%rax
    2a23:	48 f7 d0             	not    %rax
    2a26:	a8 e0                	test   $0xe0,%al
    2a28:	74 ac                	je     29d6 <init_optimized_libs+0xb6>
    2a2a:	48 b8 ff ff ff b6 18 	movabs $0xfffee018b6ffffff,%rax
    2a31:	e0 fe ff 
    2a34:	48 21 c3             	and    %rax,%rbx
    2a37:	eb 9d                	jmp    29d6 <init_optimized_libs+0xb6>
    2a39:	0f 1f 80 00 00 00 00 	nopl   0x0(%rax)

0000000000002a40 <sgx_is_within_enclave>:
    2a40:	f3 0f 1e fa          	endbr64
    2a44:	48 8d 05 a5 e3 00 00 	lea    0xe3a5(%rip),%rax        # 10df0 <g_enclave_base>
    2a4b:	48 8b 10             	mov    (%rax),%rdx
    2a4e:	48 8d 05 93 e3 00 00 	lea    0xe393(%rip),%rax        # 10de8 <g_enclave_size>
    2a55:	48 8b 08             	mov    (%rax),%rcx
    2a58:	48 01 d1             	add    %rdx,%rcx
    2a5b:	48 89 c8             	mov    %rcx,%rax
    2a5e:	48 83 e8 01          	sub    $0x1,%rax
    2a62:	48 85 f6             	test   %rsi,%rsi
    2a65:	74 21                	je     2a88 <sgx_is_within_enclave+0x48>
    2a67:	48 83 ee 01          	sub    $0x1,%rsi
    2a6b:	48 01 fe             	add    %rdi,%rsi
    2a6e:	0f 93 c1             	setae  %cl
    2a71:	48 39 d7             	cmp    %rdx,%rdi
    2a74:	0f 93 c2             	setae  %dl
    2a77:	21 ca                	and    %ecx,%edx
    2a79:	48 39 f0             	cmp    %rsi,%rax
    2a7c:	0f 93 c0             	setae  %al
    2a7f:	0f b6 c0             	movzbl %al,%eax
    2a82:	21 d0                	and    %edx,%eax
    2a84:	c3                   	ret
    2a85:	0f 1f 00             	nopl   (%rax)
    2a88:	48 89 fe             	mov    %rdi,%rsi
    2a8b:	b9 01 00 00 00       	mov    $0x1,%ecx
    2a90:	eb df                	jmp    2a71 <sgx_is_within_enclave+0x31>
    2a92:	66 2e 0f 1f 84 00 00 	cs nopw 0x0(%rax,%rax,1)
    2a99:	00 00 00 
    2a9c:	0f 1f 40 00          	nopl   0x0(%rax)

0000000000002aa0 <sgx_is_outside_enclave>:
    2aa0:	f3 0f 1e fa          	endbr64
    2aa4:	48 85 f6             	test   %rsi,%rsi
    2aa7:	74 17                	je     2ac0 <sgx_is_outside_enclave+0x20>
    2aa9:	48 83 ee 01          	sub    $0x1,%rsi
    2aad:	b8 00 00 00 00       	mov    $0x0,%eax
    2ab2:	48 01 fe             	add    %rdi,%rsi
    2ab5:	73 0c                	jae    2ac3 <sgx_is_outside_enclave+0x23>
    2ab7:	c3                   	ret
    2ab8:	0f 1f 84 00 00 00 00 	nopl   0x0(%rax,%rax,1)
    2abf:	00 
    2ac0:	48 89 fe             	mov    %rdi,%rsi
    2ac3:	48 8d 05 26 e3 00 00 	lea    0xe326(%rip),%rax        # 10df0 <g_enclave_base>
    2aca:	48 8b 10             	mov    (%rax),%rdx
    2acd:	48 8d 05 14 e3 00 00 	lea    0xe314(%rip),%rax        # 10de8 <g_enclave_size>
    2ad4:	48 8b 08             	mov    (%rax),%rcx
    2ad7:	48 01 d1             	add    %rdx,%rcx
    2ada:	48 89 c8             	mov    %rcx,%rax
    2add:	48 83 e8 01          	sub    $0x1,%rax
    2ae1:	48 39 f8             	cmp    %rdi,%rax
    2ae4:	0f 92 c0             	setb   %al
    2ae7:	48 39 d6             	cmp    %rdx,%rsi
    2aea:	0f 92 c2             	setb   %dl
    2aed:	09 d0                	or     %edx,%eax
    2aef:	0f b6 c0             	movzbl %al,%eax
    2af2:	c3                   	ret
    2af3:	66 2e 0f 1f 84 00 00 	cs nopw 0x0(%rax,%rax,1)
    2afa:	00 00 00 
    2afd:	0f 1f 00             	nopl   (%rax)

0000000000002b00 <sgx_ocalloc>:
    2b00:	f3 0f 1e fa          	endbr64
    2b04:	53                   	push   %rbx
    2b05:	48 89 fb             	mov    %rdi,%rbx
    2b08:	48 83 ec 10          	sub    $0x10,%rsp
    2b0c:	e8 3b a0 00 00       	call   cb4c <get_thread_data>
    2b11:	48 8d 15 d8 e2 00 00 	lea    0xe2d8(%rip),%rdx        # 10df0 <g_enclave_base>
    2b18:	48 8b 70 20          	mov    0x20(%rax),%rsi
    2b1c:	48 8b 3a             	mov    (%rdx),%rdi
    2b1f:	48 8d 15 c2 e2 00 00 	lea    0xe2c2(%rip),%rdx        # 10de8 <g_enclave_size>
    2b26:	48 8b 86 90 00 00 00 	mov    0x90(%rsi),%rax
    2b2d:	48 8b 0a             	mov    (%rdx),%rcx
    2b30:	48 89 c2             	mov    %rax,%rdx
    2b33:	48 83 c2 07          	add    $0x7,%rdx
    2b37:	72 33                	jb     2b6c <sgx_ocalloc+0x6c>
    2b39:	4c 8d 44 0f ff       	lea    -0x1(%rdi,%rcx,1),%r8
    2b3e:	48 39 fa             	cmp    %rdi,%rdx
    2b41:	72 05                	jb     2b48 <sgx_ocalloc+0x48>
    2b43:	49 39 c0             	cmp    %rax,%r8
    2b46:	73 24                	jae    2b6c <sgx_ocalloc+0x6c>
    2b48:	48 39 d8             	cmp    %rbx,%rax
    2b4b:	72 1f                	jb     2b6c <sgx_ocalloc+0x6c>
    2b4d:	48 89 c2             	mov    %rax,%rdx
    2b50:	48 29 da             	sub    %rbx,%rdx
    2b53:	48 89 d1             	mov    %rdx,%rcx
    2b56:	48 83 e1 f0          	and    $0xfffffffffffffff0,%rcx
    2b5a:	48 85 db             	test   %rbx,%rbx
    2b5d:	75 19                	jne    2b78 <sgx_ocalloc+0x78>
    2b5f:	48 89 cb             	mov    %rcx,%rbx
    2b62:	48 39 fb             	cmp    %rdi,%rbx
    2b65:	72 21                	jb     2b88 <sgx_ocalloc+0x88>
    2b67:	49 39 c8             	cmp    %rcx,%r8
    2b6a:	72 1c                	jb     2b88 <sgx_ocalloc+0x88>
    2b6c:	e8 cf a3 00 00       	call   cf40 <abort>
    2b71:	0f 1f 80 00 00 00 00 	nopl   0x0(%rax)
    2b78:	48 83 eb 01          	sub    $0x1,%rbx
    2b7c:	48 01 cb             	add    %rcx,%rbx
    2b7f:	72 eb                	jb     2b6c <sgx_ocalloc+0x6c>
    2b81:	eb df                	jmp    2b62 <sgx_ocalloc+0x62>
    2b83:	0f 1f 44 00 00       	nopl   0x0(%rax,%rax,1)
    2b88:	48 83 e8 01          	sub    $0x1,%rax
    2b8c:	48 25 00 f0 ff ff    	and    $0xfffffffffffff000,%rax
    2b92:	48 81 e2 00 f0 ff ff 	and    $0xfffffffffffff000,%rdx
    2b99:	75 1d                	jne    2bb8 <sgx_ocalloc+0xb8>
    2b9b:	eb cf                	jmp    2b6c <sgx_ocalloc+0x6c>
    2b9d:	0f 1f 00             	nopl   (%rax)
    2ba0:	48 8b 44 24 08       	mov    0x8(%rsp),%rax
    2ba5:	48 8b 44 24 08       	mov    0x8(%rsp),%rax
    2baa:	c6 00 00             	movb   $0x0,(%rax)
    2bad:	48 8b 44 24 08       	mov    0x8(%rsp),%rax
    2bb2:	48 2d 00 10 00 00    	sub    $0x1000,%rax
    2bb8:	48 89 44 24 08       	mov    %rax,0x8(%rsp)
    2bbd:	48 8b 44 24 08       	mov    0x8(%rsp),%rax
    2bc2:	48 39 d0             	cmp    %rdx,%rax
    2bc5:	73 d9                	jae    2ba0 <sgx_ocalloc+0xa0>
    2bc7:	48 89 8e 90 00 00 00 	mov    %rcx,0x90(%rsi)
    2bce:	48 83 c4 10          	add    $0x10,%rsp
    2bd2:	48 89 c8             	mov    %rcx,%rax
    2bd5:	5b                   	pop    %rbx
    2bd6:	c3                   	ret
    2bd7:	66 0f 1f 84 00 00 00 	nopw   0x0(%rax,%rax,1)
    2bde:	00 00 

0000000000002be0 <sgx_ocfree>:
    2be0:	f3 0f 1e fa          	endbr64
    2be4:	48 83 ec 08          	sub    $0x8,%rsp
    2be8:	e8 5f 9f 00 00       	call   cb4c <get_thread_data>
    2bed:	48 8d 15 fc e1 00 00 	lea    0xe1fc(%rip),%rdx        # 10df0 <g_enclave_base>
    2bf4:	48 8d 0d ed e1 00 00 	lea    0xe1ed(%rip),%rcx        # 10de8 <g_enclave_size>
    2bfb:	48 8b 70 20          	mov    0x20(%rax),%rsi
    2bff:	48 8b 40 08          	mov    0x8(%rax),%rax
    2c03:	48 8b 12             	mov    (%rdx),%rdx
    2c06:	48 8b 09             	mov    (%rcx),%rcx
    2c09:	48 8b 40 e8          	mov    -0x18(%rax),%rax
    2c0d:	48 89 c7             	mov    %rax,%rdi
    2c10:	48 83 c7 07          	add    $0x7,%rdi
    2c14:	72 0f                	jb     2c25 <sgx_ocfree+0x45>
    2c16:	48 8d 4c 0a ff       	lea    -0x1(%rdx,%rcx,1),%rcx
    2c1b:	48 39 c1             	cmp    %rax,%rcx
    2c1e:	72 10                	jb     2c30 <sgx_ocfree+0x50>
    2c20:	48 39 d7             	cmp    %rdx,%rdi
    2c23:	72 0b                	jb     2c30 <sgx_ocfree+0x50>
    2c25:	e8 16 a3 00 00       	call   cf40 <abort>
    2c2a:	66 0f 1f 44 00 00    	nopw   0x0(%rax,%rax,1)
    2c30:	48 89 86 90 00 00 00 	mov    %rax,0x90(%rsi)
    2c37:	48 83 c4 08          	add    $0x8,%rsp
    2c3b:	c3                   	ret
    2c3c:	0f 1f 40 00          	nopl   0x0(%rax)

0000000000002c40 <sgx_read_rand>:
    2c40:	f3 0f 1e fa          	endbr64
    2c44:	41 55                	push   %r13
    2c46:	41 54                	push   %r12
    2c48:	55                   	push   %rbp
    2c49:	53                   	push   %rbx
    2c4a:	48 83 ec 18          	sub    $0x18,%rsp
    2c4e:	64 48 8b 04 25 28 00 	mov    %fs:0x28,%rax
    2c55:	00 00 
    2c57:	48 89 44 24 08       	mov    %rax,0x8(%rsp)
    2c5c:	31 c0                	xor    %eax,%eax
    2c5e:	48 85 ff             	test   %rdi,%rdi
    2c61:	0f 84 f9 00 00 00    	je     2d60 <sgx_read_rand+0x120>
    2c67:	48 89 f3             	mov    %rsi,%rbx
    2c6a:	48 85 f6             	test   %rsi,%rsi
    2c6d:	0f 84 ed 00 00 00    	je     2d60 <sgx_read_rand+0x120>
    2c73:	48 8d 05 76 e1 00 00 	lea    0xe176(%rip),%rax        # 10df0 <g_enclave_base>
    2c7a:	48 89 fd             	mov    %rdi,%rbp
    2c7d:	31 ff                	xor    %edi,%edi
    2c7f:	48 8b 08             	mov    (%rax),%rcx
    2c82:	48 8d 05 5f e1 00 00 	lea    0xe15f(%rip),%rax        # 10de8 <g_enclave_size>
    2c89:	48 8b 10             	mov    (%rax),%rdx
    2c8c:	48 8d 46 ff          	lea    -0x1(%rsi),%rax
    2c90:	48 01 ca             	add    %rcx,%rdx
    2c93:	48 83 ea 01          	sub    $0x1,%rdx
    2c97:	48 01 e8             	add    %rbp,%rax
    2c9a:	40 0f 92 c7          	setb   %dil
    2c9e:	48 39 c2             	cmp    %rax,%rdx
    2ca1:	41 0f 93 c0          	setae  %r8b
    2ca5:	48 85 ff             	test   %rdi,%rdi
    2ca8:	40 0f 94 c6          	sete   %sil
    2cac:	41 84 f0             	test   %sil,%r8b
    2caf:	74 05                	je     2cb6 <sgx_read_rand+0x76>
    2cb1:	48 39 cd             	cmp    %rcx,%rbp
    2cb4:	73 42                	jae    2cf8 <sgx_read_rand+0xb8>
    2cb6:	be 02 00 00 00       	mov    $0x2,%esi
    2cbb:	48 85 ff             	test   %rdi,%rdi
    2cbe:	74 28                	je     2ce8 <sgx_read_rand+0xa8>
    2cc0:	48 8b 44 24 08       	mov    0x8(%rsp),%rax
    2cc5:	64 48 2b 04 25 28 00 	sub    %fs:0x28,%rax
    2ccc:	00 00 
    2cce:	0f 85 96 00 00 00    	jne    2d6a <sgx_read_rand+0x12a>
    2cd4:	48 83 c4 18          	add    $0x18,%rsp
    2cd8:	89 f0                	mov    %esi,%eax
    2cda:	5b                   	pop    %rbx
    2cdb:	5d                   	pop    %rbp
    2cdc:	41 5c                	pop    %r12
    2cde:	41 5d                	pop    %r13
    2ce0:	c3                   	ret
    2ce1:	0f 1f 80 00 00 00 00 	nopl   0x0(%rax)
    2ce8:	48 39 c8             	cmp    %rcx,%rax
    2ceb:	72 0b                	jb     2cf8 <sgx_read_rand+0xb8>
    2ced:	48 39 d5             	cmp    %rdx,%rbp
    2cf0:	76 ce                	jbe    2cc0 <sgx_read_rand+0x80>
    2cf2:	66 0f 1f 44 00 00    	nopw   0x0(%rax,%rax,1)
    2cf8:	c7 44 24 04 00 00 00 	movl   $0x0,0x4(%rsp)
    2cff:	00 
    2d00:	4c 8d 6c 24 04       	lea    0x4(%rsp),%r13
    2d05:	4c 89 ef             	mov    %r13,%rdi
    2d08:	e8 10 a2 00 00       	call   cf1d <do_rdrand>
    2d0d:	85 c0                	test   %eax,%eax
    2d0f:	74 3f                	je     2d50 <sgx_read_rand+0x110>
    2d11:	41 bc 04 00 00 00    	mov    $0x4,%r12d
    2d17:	48 89 ef             	mov    %rbp,%rdi
    2d1a:	4c 89 ee             	mov    %r13,%rsi
    2d1d:	4c 39 e3             	cmp    %r12,%rbx
    2d20:	4c 0f 46 e3          	cmovbe %rbx,%r12
    2d24:	4c 89 e2             	mov    %r12,%rdx
    2d27:	4c 01 e5             	add    %r12,%rbp
    2d2a:	e8 31 85 00 00       	call   b260 <memcpy>
    2d2f:	4c 29 e3             	sub    %r12,%rbx
    2d32:	75 d1                	jne    2d05 <sgx_read_rand+0xc5>
    2d34:	be 04 00 00 00       	mov    $0x4,%esi
    2d39:	b9 04 00 00 00       	mov    $0x4,%ecx
    2d3e:	31 d2                	xor    %edx,%edx
    2d40:	4c 89 ef             	mov    %r13,%rdi
    2d43:	e8 68 87 00 00       	call   b4b0 <memset_s>
    2d48:	31 f6                	xor    %esi,%esi
    2d4a:	e9 71 ff ff ff       	jmp    2cc0 <sgx_read_rand+0x80>
    2d4f:	90                   	nop
    2d50:	be 01 00 00 00       	mov    $0x1,%esi
    2d55:	e9 66 ff ff ff       	jmp    2cc0 <sgx_read_rand+0x80>
    2d5a:	66 0f 1f 44 00 00    	nopw   0x0(%rax,%rax,1)
    2d60:	be 02 00 00 00       	mov    $0x2,%esi
    2d65:	e9 56 ff ff ff       	jmp    2cc0 <sgx_read_rand+0x80>
    2d6a:	e8 b1 87 00 00       	call   b520 <__stack_chk_fail>
    2d6f:	90                   	nop

0000000000002d70 <check_static_stack_canary>:
    2d70:	f3 0f 1e fa          	endbr64
    2d74:	48 8d 05 5d e0 00 00 	lea    0xe05d(%rip),%rax        # 10dd8 <__intel_security_cookie>
    2d7b:	48 8b 00             	mov    (%rax),%rax
    2d7e:	48 39 87 08 fc fe ff 	cmp    %rax,-0x103f8(%rdi)
    2d85:	0f 95 c0             	setne  %al
    2d88:	0f b6 c0             	movzbl %al,%eax
    2d8b:	f7 d8                	neg    %eax
    2d8d:	c3                   	ret
    2d8e:	66 90                	xchg   %ax,%ax

0000000000002d90 <sgx_wrpkru>:
    2d90:	f3 0f 1e fa          	endbr64
    2d94:	53                   	push   %rbx
    2d95:	89 fb                	mov    %edi,%ebx
    2d97:	e8 f4 14 00 00       	call   4290 <is_pkru_enabled>
    2d9c:	31 d2                	xor    %edx,%edx
    2d9e:	84 c0                	test   %al,%al
    2da0:	74 0c                	je     2dae <sgx_wrpkru+0x1e>
    2da2:	89 d8                	mov    %ebx,%eax
    2da4:	89 d1                	mov    %edx,%ecx
    2da6:	0f 01 ef             	wrpkru
    2da9:	ba 01 00 00 00       	mov    $0x1,%edx
    2dae:	89 d0                	mov    %edx,%eax
    2db0:	5b                   	pop    %rbx
    2db1:	c3                   	ret
    2db2:	66 2e 0f 1f 84 00 00 	cs nopw 0x0(%rax,%rax,1)
    2db9:	00 00 00 
    2dbc:	0f 1f 40 00          	nopl   0x0(%rax)

0000000000002dc0 <_ZL25check_dynamic_entry_rangePvmtmP24dynamic_flags_attributes.constprop.0>:
    2dc0:	41 55                	push   %r13
    2dc2:	49 89 cd             	mov    %rcx,%r13
    2dc5:	41 54                	push   %r12
    2dc7:	55                   	push   %rbp
    2dc8:	53                   	push   %rbx
    2dc9:	48 83 ec 08          	sub    $0x8,%rsp
    2dcd:	48 8d 0d 8c 03 01 00 	lea    0x1038c(%rip),%rcx        # 13160 <g_global_data>
    2dd4:	8b 81 58 01 00 00    	mov    0x158(%rcx),%eax
    2dda:	85 c0                	test   %eax,%eax
    2ddc:	0f 84 8e 00 00 00    	je     2e70 <_ZL25check_dynamic_entry_rangePvmtmP24dynamic_flags_attributes.constprop.0+0xb0>
    2de2:	48 89 d3             	mov    %rdx,%rbx
    2de5:	49 89 fc             	mov    %rdi,%r12
    2de8:	31 d2                	xor    %edx,%edx
    2dea:	eb 11                	jmp    2dfd <_ZL25check_dynamic_entry_rangePvmtmP24dynamic_flags_attributes.constprop.0+0x3d>
    2dec:	0f 1f 40 00          	nopl   0x0(%rax)
    2df0:	8b 81 58 01 00 00    	mov    0x158(%rcx),%eax
    2df6:	83 c2 01             	add    $0x1,%edx
    2df9:	39 c2                	cmp    %eax,%edx
    2dfb:	73 73                	jae    2e70 <_ZL25check_dynamic_entry_rangePvmtmP24dynamic_flags_attributes.constprop.0+0xb0>
    2dfd:	89 d0                	mov    %edx,%eax
    2dff:	48 83 c0 0b          	add    $0xb,%rax
    2e03:	48 c1 e0 05          	shl    $0x5,%rax
    2e07:	48 01 c8             	add    %rcx,%rax
    2e0a:	0f b7 00             	movzwl (%rax),%eax
    2e0d:	66 39 c6             	cmp    %ax,%si
    2e10:	75 de                	jne    2df0 <_ZL25check_dynamic_entry_rangePvmtmP24dynamic_flags_attributes.constprop.0+0x30>
    2e12:	8d 42 0b             	lea    0xb(%rdx),%eax
    2e15:	48 c1 e0 05          	shl    $0x5,%rax
    2e19:	48 01 c1             	add    %rax,%rcx
    2e1c:	48 89 cd             	mov    %rcx,%rbp
    2e1f:	74 4f                	je     2e70 <_ZL25check_dynamic_entry_rangePvmtmP24dynamic_flags_attributes.constprop.0+0xb0>
    2e21:	e8 db 9c 00 00       	call   cb01 <get_enclave_base>
    2e26:	48 8b 55 08          	mov    0x8(%rbp),%rdx
    2e2a:	48 01 da             	add    %rbx,%rdx
    2e2d:	48 01 d0             	add    %rdx,%rax
    2e30:	8b 55 04             	mov    0x4(%rbp),%edx
    2e33:	49 39 c4             	cmp    %rax,%r12
    2e36:	72 38                	jb     2e70 <_ZL25check_dynamic_entry_rangePvmtmP24dynamic_flags_attributes.constprop.0+0xb0>
    2e38:	48 c1 e2 0c          	shl    $0xc,%rdx
    2e3c:	49 81 c4 00 10 00 00 	add    $0x1000,%r12
    2e43:	48 01 c2             	add    %rax,%rdx
    2e46:	4c 39 e2             	cmp    %r12,%rdx
    2e49:	72 25                	jb     2e70 <_ZL25check_dynamic_entry_rangePvmtmP24dynamic_flags_attributes.constprop.0+0xb0>
    2e4b:	4d 85 ed             	test   %r13,%r13
    2e4e:	74 11                	je     2e61 <_ZL25check_dynamic_entry_rangePvmtmP24dynamic_flags_attributes.constprop.0+0xa1>
    2e50:	48 8b 45 18          	mov    0x18(%rbp),%rax
    2e54:	49 89 45 00          	mov    %rax,0x0(%r13)
    2e58:	0f b7 45 02          	movzwl 0x2(%rbp),%eax
    2e5c:	66 41 89 45 08       	mov    %ax,0x8(%r13)
    2e61:	31 c0                	xor    %eax,%eax
    2e63:	48 83 c4 08          	add    $0x8,%rsp
    2e67:	5b                   	pop    %rbx
    2e68:	5d                   	pop    %rbp
    2e69:	41 5c                	pop    %r12
    2e6b:	41 5d                	pop    %r13
    2e6d:	c3                   	ret
    2e6e:	66 90                	xchg   %ax,%ax
    2e70:	b8 ff ff ff ff       	mov    $0xffffffff,%eax
    2e75:	eb ec                	jmp    2e63 <_ZL25check_dynamic_entry_rangePvmtmP24dynamic_flags_attributes.constprop.0+0xa3>
    2e77:	66 0f 1f 84 00 00 00 	nopw   0x0(%rax,%rax,1)
    2e7e:	00 00 

0000000000002e80 <_ZL19check_dynamic_rangePvmPmP24dynamic_flags_attributes.constprop.0>:
    2e80:	48 81 ff ff ef ff ff 	cmp    $0xffffffffffffefff,%rdi
    2e87:	0f 87 c3 01 00 00    	ja     3050 <_ZL19check_dynamic_rangePvmPmP24dynamic_flags_attributes.constprop.0+0x1d0>
    2e8d:	41 57                	push   %r15
    2e8f:	41 56                	push   %r14
    2e91:	41 55                	push   %r13
    2e93:	41 54                	push   %r12
    2e95:	49 89 f4             	mov    %rsi,%r12
    2e98:	55                   	push   %rbp
    2e99:	48 89 d5             	mov    %rdx,%rbp
    2e9c:	53                   	push   %rbx
    2e9d:	48 89 fb             	mov    %rdi,%rbx
    2ea0:	48 83 ec 08          	sub    $0x8,%rsp
    2ea4:	e8 f7 10 00 00       	call   3fa0 <get_heap_base>
    2ea9:	49 89 c5             	mov    %rax,%r13
    2eac:	e8 7f 11 00 00       	call   4030 <get_heap_min_size>
    2eb1:	49 01 c5             	add    %rax,%r13
    2eb4:	e8 07 11 00 00       	call   3fc0 <get_heap_size>
    2eb9:	49 89 c6             	mov    %rax,%r14
    2ebc:	e8 6f 11 00 00       	call   4030 <get_heap_min_size>
    2ec1:	49 29 c6             	sub    %rax,%r14
    2ec4:	4c 39 eb             	cmp    %r13,%rbx
    2ec7:	72 37                	jb     2f00 <_ZL19check_dynamic_rangePvmPmP24dynamic_flags_attributes.constprop.0+0x80>
    2ec9:	48 8d 83 00 10 00 00 	lea    0x1000(%rbx),%rax
    2ed0:	4d 01 f5             	add    %r14,%r13
    2ed3:	49 39 c5             	cmp    %rax,%r13
    2ed6:	72 28                	jb     2f00 <_ZL19check_dynamic_rangePvmPmP24dynamic_flags_attributes.constprop.0+0x80>
    2ed8:	48 85 ed             	test   %rbp,%rbp
    2edb:	74 11                	je     2eee <_ZL19check_dynamic_rangePvmPmP24dynamic_flags_attributes.constprop.0+0x6e>
    2edd:	b8 08 00 00 00       	mov    $0x8,%eax
    2ee2:	48 c7 45 00 03 02 00 	movq   $0x203,0x0(%rbp)
    2ee9:	00 
    2eea:	66 89 45 08          	mov    %ax,0x8(%rbp)
    2eee:	31 c0                	xor    %eax,%eax
    2ef0:	48 83 c4 08          	add    $0x8,%rsp
    2ef4:	5b                   	pop    %rbx
    2ef5:	5d                   	pop    %rbp
    2ef6:	41 5c                	pop    %r12
    2ef8:	41 5d                	pop    %r13
    2efa:	41 5e                	pop    %r14
    2efc:	41 5f                	pop    %r15
    2efe:	c3                   	ret
    2eff:	90                   	nop
    2f00:	31 d2                	xor    %edx,%edx
    2f02:	48 89 e9             	mov    %rbp,%rcx
    2f05:	be 07 00 00 00       	mov    $0x7,%esi
    2f0a:	48 89 df             	mov    %rbx,%rdi
    2f0d:	e8 ae fe ff ff       	call   2dc0 <_ZL25check_dynamic_entry_rangePvmtmP24dynamic_flags_attributes.constprop.0>
    2f12:	85 c0                	test   %eax,%eax
    2f14:	74 d8                	je     2eee <_ZL19check_dynamic_rangePvmPmP24dynamic_flags_attributes.constprop.0+0x6e>
    2f16:	48 8d 15 1b df 00 00 	lea    0xdf1b(%rip),%rdx        # 10e38 <rsrv_mem_size>
    2f1d:	48 8d 05 1c df 00 00 	lea    0xdf1c(%rip),%rax        # 10e40 <rsrv_mem_base>
    2f24:	48 8b 0a             	mov    (%rdx),%rcx
    2f27:	48 8d 15 02 df 00 00 	lea    0xdf02(%rip),%rdx        # 10e30 <rsrv_mem_min_size>
    2f2e:	48 8b 00             	mov    (%rax),%rax
    2f31:	48 8b 32             	mov    (%rdx),%rsi
    2f34:	48 01 c6             	add    %rax,%rsi
    2f37:	48 39 f3             	cmp    %rsi,%rbx
    2f3a:	72 0f                	jb     2f4b <_ZL19check_dynamic_rangePvmPmP24dynamic_flags_attributes.constprop.0+0xcb>
    2f3c:	48 8d 93 00 10 00 00 	lea    0x1000(%rbx),%rdx
    2f43:	48 01 c8             	add    %rcx,%rax
    2f46:	48 39 d0             	cmp    %rdx,%rax
    2f49:	73 8d                	jae    2ed8 <_ZL19check_dynamic_rangePvmPmP24dynamic_flags_attributes.constprop.0+0x58>
    2f4b:	48 8d 0d 0e 02 01 00 	lea    0x1020e(%rip),%rcx        # 13160 <g_global_data>
    2f52:	31 d2                	xor    %edx,%edx
    2f54:	8b 81 58 01 00 00    	mov    0x158(%rcx),%eax
    2f5a:	85 c0                	test   %eax,%eax
    2f5c:	74 25                	je     2f83 <_ZL19check_dynamic_rangePvmPmP24dynamic_flags_attributes.constprop.0+0x103>
    2f5e:	66 90                	xchg   %ax,%ax
    2f60:	89 d0                	mov    %edx,%eax
    2f62:	48 83 c0 0b          	add    $0xb,%rax
    2f66:	48 c1 e0 05          	shl    $0x5,%rax
    2f6a:	48 01 c8             	add    %rcx,%rax
    2f6d:	0f b7 00             	movzwl (%rax),%eax
    2f70:	66 3d 13 10          	cmp    $0x1013,%ax
    2f74:	74 42                	je     2fb8 <_ZL19check_dynamic_rangePvmPmP24dynamic_flags_attributes.constprop.0+0x138>
    2f76:	8b 81 58 01 00 00    	mov    0x158(%rcx),%eax
    2f7c:	83 c2 01             	add    $0x1,%edx
    2f7f:	39 c2                	cmp    %eax,%edx
    2f81:	72 dd                	jb     2f60 <_ZL19check_dynamic_rangePvmPmP24dynamic_flags_attributes.constprop.0+0xe0>
    2f83:	41 bd 0e 00 00 00    	mov    $0xe,%r13d
    2f89:	31 d2                	xor    %edx,%edx
    2f8b:	48 89 e9             	mov    %rbp,%rcx
    2f8e:	44 89 ee             	mov    %r13d,%esi
    2f91:	48 89 df             	mov    %rbx,%rdi
    2f94:	e8 27 fe ff ff       	call   2dc0 <_ZL25check_dynamic_entry_rangePvmtmP24dynamic_flags_attributes.constprop.0>
    2f99:	85 c0                	test   %eax,%eax
    2f9b:	0f 84 96 00 00 00    	je     3037 <_ZL19check_dynamic_rangePvmPmP24dynamic_flags_attributes.constprop.0+0x1b7>
    2fa1:	41 83 c5 01          	add    $0x1,%r13d
    2fa5:	41 83 fd 13          	cmp    $0x13,%r13d
    2fa9:	75 de                	jne    2f89 <_ZL19check_dynamic_rangePvmPmP24dynamic_flags_attributes.constprop.0+0x109>
    2fab:	b8 ff ff ff ff       	mov    $0xffffffff,%eax
    2fb0:	e9 3b ff ff ff       	jmp    2ef0 <_ZL19check_dynamic_rangePvmPmP24dynamic_flags_attributes.constprop.0+0x70>
    2fb5:	0f 1f 00             	nopl   (%rax)
    2fb8:	8d 42 0b             	lea    0xb(%rdx),%eax
    2fbb:	41 bd 0e 00 00 00    	mov    $0xe,%r13d
    2fc1:	48 c1 e0 05          	shl    $0x5,%rax
    2fc5:	48 01 c1             	add    %rax,%rcx
    2fc8:	49 89 ce             	mov    %rcx,%r14
    2fcb:	74 bc                	je     2f89 <_ZL19check_dynamic_rangePvmPmP24dynamic_flags_attributes.constprop.0+0x109>
    2fcd:	41 8b 46 04          	mov    0x4(%r14),%eax
    2fd1:	45 31 ff             	xor    %r15d,%r15d
    2fd4:	83 f8 ff             	cmp    $0xffffffff,%eax
    2fd7:	75 17                	jne    2ff0 <_ZL19check_dynamic_rangePvmPmP24dynamic_flags_attributes.constprop.0+0x170>
    2fd9:	eb 4d                	jmp    3028 <_ZL19check_dynamic_rangePvmPmP24dynamic_flags_attributes.constprop.0+0x1a8>
    2fdb:	0f 1f 44 00 00       	nopl   0x0(%rax,%rax,1)
    2fe0:	41 8b 46 04          	mov    0x4(%r14),%eax
    2fe4:	49 83 c7 01          	add    $0x1,%r15
    2fe8:	83 c0 01             	add    $0x1,%eax
    2feb:	41 39 c7             	cmp    %eax,%r15d
    2fee:	73 38                	jae    3028 <_ZL19check_dynamic_rangePvmPmP24dynamic_flags_attributes.constprop.0+0x1a8>
    2ff0:	49 8b 56 08          	mov    0x8(%r14),%rdx
    2ff4:	48 89 e9             	mov    %rbp,%rcx
    2ff7:	44 89 ee             	mov    %r13d,%esi
    2ffa:	48 89 df             	mov    %rbx,%rdi
    2ffd:	49 0f af d7          	imul   %r15,%rdx
    3001:	e8 ba fd ff ff       	call   2dc0 <_ZL25check_dynamic_entry_rangePvmtmP24dynamic_flags_attributes.constprop.0>
    3006:	85 c0                	test   %eax,%eax
    3008:	75 d6                	jne    2fe0 <_ZL19check_dynamic_rangePvmPmP24dynamic_flags_attributes.constprop.0+0x160>
    300a:	4d 85 e4             	test   %r12,%r12
    300d:	0f 84 db fe ff ff    	je     2eee <_ZL19check_dynamic_rangePvmPmP24dynamic_flags_attributes.constprop.0+0x6e>
    3013:	49 8b 46 08          	mov    0x8(%r14),%rax
    3017:	49 0f af c7          	imul   %r15,%rax
    301b:	49 89 04 24          	mov    %rax,(%r12)
    301f:	e9 ca fe ff ff       	jmp    2eee <_ZL19check_dynamic_rangePvmPmP24dynamic_flags_attributes.constprop.0+0x6e>
    3024:	0f 1f 40 00          	nopl   0x0(%rax)
    3028:	41 83 c5 01          	add    $0x1,%r13d
    302c:	41 83 fd 13          	cmp    $0x13,%r13d
    3030:	75 9b                	jne    2fcd <_ZL19check_dynamic_rangePvmPmP24dynamic_flags_attributes.constprop.0+0x14d>
    3032:	e9 74 ff ff ff       	jmp    2fab <_ZL19check_dynamic_rangePvmPmP24dynamic_flags_attributes.constprop.0+0x12b>
    3037:	4d 85 e4             	test   %r12,%r12
    303a:	0f 84 ae fe ff ff    	je     2eee <_ZL19check_dynamic_rangePvmPmP24dynamic_flags_attributes.constprop.0+0x6e>
    3040:	49 c7 04 24 00 00 00 	movq   $0x0,(%r12)
    3047:	00 
    3048:	e9 a1 fe ff ff       	jmp    2eee <_ZL19check_dynamic_rangePvmPmP24dynamic_flags_attributes.constprop.0+0x6e>
    304d:	0f 1f 00             	nopl   (%rax)
    3050:	b8 ff ff ff ff       	mov    $0xffffffff,%eax
    3055:	c3                   	ret
    3056:	66 2e 0f 1f 84 00 00 	cs nopw 0x0(%rax,%rax,1)
    305d:	00 00 00 

0000000000003060 <is_dynamic_thread>:
    3060:	f3 0f 1e fa          	endbr64
    3064:	48 83 ec 28          	sub    $0x28,%rsp
    3068:	64 48 8b 04 25 28 00 	mov    %fs:0x28,%rax
    306f:	00 00 
    3071:	48 89 44 24 18       	mov    %rax,0x18(%rsp)
    3076:	31 c0                	xor    %eax,%eax
    3078:	48 85 ff             	test   %rdi,%rdi
    307b:	74 0e                	je     308b <is_dynamic_thread+0x2b>
    307d:	31 f6                	xor    %esi,%esi
    307f:	48 89 e2             	mov    %rsp,%rdx
    3082:	e8 f9 fd ff ff       	call   2e80 <_ZL19check_dynamic_rangePvmPmP24dynamic_flags_attributes.constprop.0>
    3087:	85 c0                	test   %eax,%eax
    3089:	74 1d                	je     30a8 <is_dynamic_thread+0x48>
    308b:	31 c0                	xor    %eax,%eax
    308d:	48 8b 54 24 18       	mov    0x18(%rsp),%rdx
    3092:	64 48 2b 14 25 28 00 	sub    %fs:0x28,%rdx
    3099:	00 00 
    309b:	75 1a                	jne    30b7 <is_dynamic_thread+0x57>
    309d:	48 83 c4 28          	add    $0x28,%rsp
    30a1:	c3                   	ret
    30a2:	66 0f 1f 44 00 00    	nopw   0x0(%rax,%rax,1)
    30a8:	31 c0                	xor    %eax,%eax
    30aa:	48 81 3c 24 00 01 00 	cmpq   $0x100,(%rsp)
    30b1:	00 
    30b2:	0f 94 c0             	sete   %al
    30b5:	eb d6                	jmp    308d <is_dynamic_thread+0x2d>
    30b7:	e8 64 84 00 00       	call   b520 <__stack_chk_fail>
    30bc:	0f 1f 40 00          	nopl   0x0(%rax)

00000000000030c0 <is_dynamic_thread_exist>:
    30c0:	f3 0f 1e fa          	endbr64
    30c4:	48 8d 05 31 dd 00 00 	lea    0xdd31(%rip),%rax        # 10dfc <EDMM_supported>
    30cb:	8b 00                	mov    (%rax),%eax
    30cd:	85 c0                	test   %eax,%eax
    30cf:	74 59                	je     312a <is_dynamic_thread_exist+0x6a>
    30d1:	48 8d 0d 88 00 01 00 	lea    0x10088(%rip),%rcx        # 13160 <g_global_data>
    30d8:	8b 81 58 01 00 00    	mov    0x158(%rcx),%eax
    30de:	85 c0                	test   %eax,%eax
    30e0:	74 46                	je     3128 <is_dynamic_thread_exist+0x68>
    30e2:	31 d2                	xor    %edx,%edx
    30e4:	eb 17                	jmp    30fd <is_dynamic_thread_exist+0x3d>
    30e6:	66 2e 0f 1f 84 00 00 	cs nopw 0x0(%rax,%rax,1)
    30ed:	00 00 00 
    30f0:	8b 81 58 01 00 00    	mov    0x158(%rcx),%eax
    30f6:	83 c2 01             	add    $0x1,%edx
    30f9:	39 c2                	cmp    %eax,%edx
    30fb:	73 2b                	jae    3128 <is_dynamic_thread_exist+0x68>
    30fd:	89 d0                	mov    %edx,%eax
    30ff:	48 83 c0 0b          	add    $0xb,%rax
    3103:	48 c1 e0 05          	shl    $0x5,%rax
    3107:	48 01 c8             	add    %rcx,%rax
    310a:	0f b7 00             	movzwl (%rax),%eax
    310d:	66 83 f8 12          	cmp    $0x12,%ax
    3111:	75 dd                	jne    30f0 <is_dynamic_thread_exist+0x30>
    3113:	8d 42 0b             	lea    0xb(%rdx),%eax
    3116:	48 c1 e0 05          	shl    $0x5,%rax
    311a:	48 01 c1             	add    %rax,%rcx
    311d:	0f 95 c0             	setne  %al
    3120:	0f b6 c0             	movzbl %al,%eax
    3123:	c3                   	ret
    3124:	0f 1f 40 00          	nopl   0x0(%rax)
    3128:	31 c0                	xor    %eax,%eax
    312a:	c3                   	ret
    312b:	0f 1f 44 00 00       	nopl   0x0(%rax,%rax,1)

0000000000003130 <get_dynamic_stack_max_page>:
    3130:	f3 0f 1e fa          	endbr64
    3134:	48 8d 0d 25 00 01 00 	lea    0x10025(%rip),%rcx        # 13160 <g_global_data>
    313b:	8b 81 58 01 00 00    	mov    0x158(%rcx),%eax
    3141:	85 c0                	test   %eax,%eax
    3143:	74 45                	je     318a <get_dynamic_stack_max_page+0x5a>
    3145:	31 d2                	xor    %edx,%edx
    3147:	eb 14                	jmp    315d <get_dynamic_stack_max_page+0x2d>
    3149:	0f 1f 80 00 00 00 00 	nopl   0x0(%rax)
    3150:	8b 81 58 01 00 00    	mov    0x158(%rcx),%eax
    3156:	83 c2 01             	add    $0x1,%edx
    3159:	39 c2                	cmp    %eax,%edx
    315b:	73 2b                	jae    3188 <get_dynamic_stack_max_page+0x58>
    315d:	89 d0                	mov    %edx,%eax
    315f:	48 83 c0 0b          	add    $0xb,%rax
    3163:	48 c1 e0 05          	shl    $0x5,%rax
    3167:	48 01 c8             	add    %rcx,%rax
    316a:	0f b7 00             	movzwl (%rax),%eax
    316d:	66 83 f8 07          	cmp    $0x7,%ax
    3171:	75 dd                	jne    3150 <get_dynamic_stack_max_page+0x20>
    3173:	8d 42 0b             	lea    0xb(%rdx),%eax
    3176:	48 c1 e0 05          	shl    $0x5,%rax
    317a:	48 01 c1             	add    %rax,%rcx
    317d:	74 09                	je     3188 <get_dynamic_stack_max_page+0x58>
    317f:	8b 41 04             	mov    0x4(%rcx),%eax
    3182:	c3                   	ret
    3183:	0f 1f 44 00 00       	nopl   0x0(%rax,%rax,1)
    3188:	31 c0                	xor    %eax,%eax
    318a:	c3                   	ret
    318b:	0f 1f 44 00 00       	nopl   0x0(%rax,%rax,1)

0000000000003190 <do_add_thread>:
    3190:	f3 0f 1e fa          	endbr64
    3194:	41 56                	push   %r14
    3196:	41 55                	push   %r13
    3198:	41 54                	push   %r12
    319a:	55                   	push   %rbp
    319b:	53                   	push   %rbx
    319c:	48 89 fb             	mov    %rdi,%rbx
    319f:	48 83 ec 10          	sub    $0x10,%rsp
    31a3:	64 48 8b 04 25 28 00 	mov    %fs:0x28,%rax
    31aa:	00 00 
    31ac:	48 89 44 24 08       	mov    %rax,0x8(%rsp)
    31b1:	31 c0                	xor    %eax,%eax
    31b3:	48 c7 04 24 00 00 00 	movq   $0x0,(%rsp)
    31ba:	00 
    31bb:	e8 41 99 00 00       	call   cb01 <get_enclave_base>
    31c0:	31 d2                	xor    %edx,%edx
    31c2:	48 89 e6             	mov    %rsp,%rsi
    31c5:	48 89 df             	mov    %rbx,%rdi
    31c8:	48 89 c5             	mov    %rax,%rbp
    31cb:	e8 b0 fc ff ff       	call   2e80 <_ZL19check_dynamic_rangePvmPmP24dynamic_flags_attributes.constprop.0>
    31d0:	85 c0                	test   %eax,%eax
    31d2:	75 62                	jne    3236 <do_add_thread+0xa6>
    31d4:	4c 8d 25 85 ff 00 00 	lea    0xff85(%rip),%r12        # 13160 <g_global_data>
    31db:	41 8b 84 24 58 01 00 	mov    0x158(%r12),%eax
    31e2:	00 
    31e3:	85 c0                	test   %eax,%eax
    31e5:	74 4f                	je     3236 <do_add_thread+0xa6>
    31e7:	31 d2                	xor    %edx,%edx
    31e9:	eb 14                	jmp    31ff <do_add_thread+0x6f>
    31eb:	0f 1f 44 00 00       	nopl   0x0(%rax,%rax,1)
    31f0:	41 8b 84 24 58 01 00 	mov    0x158(%r12),%eax
    31f7:	00 
    31f8:	83 c2 01             	add    $0x1,%edx
    31fb:	39 c2                	cmp    %eax,%edx
    31fd:	73 37                	jae    3236 <do_add_thread+0xa6>
    31ff:	89 d0                	mov    %edx,%eax
    3201:	48 83 c0 0b          	add    $0xb,%rax
    3205:	48 c1 e0 05          	shl    $0x5,%rax
    3209:	4c 01 e0             	add    %r12,%rax
    320c:	44 0f b7 28          	movzwl (%rax),%r13d
    3210:	66 41 83 fd 0e       	cmp    $0xe,%r13w
    3215:	75 d9                	jne    31f0 <do_add_thread+0x60>
    3217:	8d 42 0b             	lea    0xb(%rdx),%eax
    321a:	48 c1 e0 05          	shl    $0x5,%rax
    321e:	4c 01 e0             	add    %r12,%rax
    3221:	74 13                	je     3236 <do_add_thread+0xa6>
    3223:	4c 8b 34 24          	mov    (%rsp),%r14
    3227:	48 8b 40 08          	mov    0x8(%rax),%rax
    322b:	49 01 ee             	add    %rbp,%r14
    322e:	4c 01 f0             	add    %r14,%rax
    3231:	48 39 d8             	cmp    %rbx,%rax
    3234:	74 4e                	je     3284 <do_add_thread+0xf4>
    3236:	b8 01 00 00 00       	mov    $0x1,%eax
    323b:	48 8b 54 24 08       	mov    0x8(%rsp),%rdx
    3240:	64 48 2b 14 25 28 00 	sub    %fs:0x28,%rdx
    3247:	00 00 
    3249:	0f 85 f9 00 00 00    	jne    3348 <do_add_thread+0x1b8>
    324f:	48 83 c4 10          	add    $0x10,%rsp
    3253:	5b                   	pop    %rbx
    3254:	5d                   	pop    %rbp
    3255:	41 5c                	pop    %r12
    3257:	41 5d                	pop    %r13
    3259:	41 5e                	pop    %r14
    325b:	c3                   	ret
    325c:	0f 1f 40 00          	nopl   0x0(%rax)
    3260:	8d 42 0b             	lea    0xb(%rdx),%eax
    3263:	48 c1 e0 05          	shl    $0x5,%rax
    3267:	4c 01 e0             	add    %r12,%rax
    326a:	74 0d                	je     3279 <do_add_thread+0xe9>
    326c:	0f b7 50 02          	movzwl 0x2(%rax),%edx
    3270:	83 e2 20             	and    $0x20,%edx
    3273:	0f 85 af 00 00 00    	jne    3328 <do_add_thread+0x198>
    3279:	41 83 c5 01          	add    $0x1,%r13d
    327d:	66 41 83 fd 13       	cmp    $0x13,%r13w
    3282:	74 3c                	je     32c0 <do_add_thread+0x130>
    3284:	41 8b 84 24 58 01 00 	mov    0x158(%r12),%eax
    328b:	00 
    328c:	31 d2                	xor    %edx,%edx
    328e:	85 c0                	test   %eax,%eax
    3290:	75 15                	jne    32a7 <do_add_thread+0x117>
    3292:	eb e5                	jmp    3279 <do_add_thread+0xe9>
    3294:	0f 1f 40 00          	nopl   0x0(%rax)
    3298:	41 8b 84 24 58 01 00 	mov    0x158(%r12),%eax
    329f:	00 
    32a0:	83 c2 01             	add    $0x1,%edx
    32a3:	39 c2                	cmp    %eax,%edx
    32a5:	73 d2                	jae    3279 <do_add_thread+0xe9>
    32a7:	89 d0                	mov    %edx,%eax
    32a9:	48 83 c0 0b          	add    $0xb,%rax
    32ad:	48 c1 e0 05          	shl    $0x5,%rax
    32b1:	4c 01 e0             	add    %r12,%rax
    32b4:	0f b7 00             	movzwl (%rax),%eax
    32b7:	66 44 39 e8          	cmp    %r13w,%ax
    32bb:	75 db                	jne    3298 <do_add_thread+0x108>
    32bd:	eb a1                	jmp    3260 <do_add_thread+0xd0>
    32bf:	90                   	nop
    32c0:	ba 48 00 00 00       	mov    $0x48,%edx
    32c5:	49 8d b4 24 10 01 00 	lea    0x110(%r12),%rsi
    32cc:	00 
    32cd:	48 89 df             	mov    %rbx,%rdi
    32d0:	e8 8b 7f 00 00       	call   b260 <memcpy>
    32d5:	f3 0f 6f 4b 30       	movdqu 0x30(%rbx),%xmm1
    32da:	48 89 d8             	mov    %rbx,%rax
    32dd:	48 89 df             	mov    %rbx,%rdi
    32e0:	66 48 0f 6e c3       	movq   %rbx,%xmm0
    32e5:	48 29 e8             	sub    %rbp,%rax
    32e8:	48 01 43 10          	add    %rax,0x10(%rbx)
    32ec:	ba 00 01 00 00       	mov    $0x100,%edx
    32f1:	66 0f 6c c0          	punpcklqdq %xmm0,%xmm0
    32f5:	be 00 10 00 00       	mov    $0x1000,%esi
    32fa:	66 0f d4 c8          	paddq  %xmm0,%xmm1
    32fe:	66 48 0f 6e c5       	movq   %rbp,%xmm0
    3303:	66 0f 6c c0          	punpcklqdq %xmm0,%xmm0
    3307:	66 0f fb c8          	psubq  %xmm0,%xmm1
    330b:	0f 11 4b 30          	movups %xmm1,0x30(%rbx)
    330f:	e8 ac 49 00 00       	call   7cc0 <mm_modify_type>
    3314:	85 c0                	test   %eax,%eax
    3316:	0f 95 c0             	setne  %al
    3319:	0f b6 c0             	movzbl %al,%eax
    331c:	e9 1a ff ff ff       	jmp    323b <do_add_thread+0xab>
    3321:	0f 1f 80 00 00 00 00 	nopl   0x0(%rax)
    3328:	8b 70 04             	mov    0x4(%rax),%esi
    332b:	48 8b 78 08          	mov    0x8(%rax),%rdi
    332f:	48 c1 e6 0c          	shl    $0xc,%rsi
    3333:	4c 01 f7             	add    %r14,%rdi
    3336:	e8 55 49 00 00       	call   7c90 <mm_commit>
    333b:	85 c0                	test   %eax,%eax
    333d:	0f 84 36 ff ff ff    	je     3279 <do_add_thread+0xe9>
    3343:	e9 ee fe ff ff       	jmp    3236 <do_add_thread+0xa6>
    3348:	e8 d3 81 00 00       	call   b520 <__stack_chk_fail>
    334d:	0f 1f 00             	nopl   (%rax)

0000000000003350 <sgx_set_ssa_aexnotify>:
    3350:	f3 0f 1e fa          	endbr64
    3354:	55                   	push   %rbp
    3355:	89 fd                	mov    %edi,%ebp
    3357:	53                   	push   %rbx
    3358:	48 83 ec 08          	sub    $0x8,%rsp
    335c:	e8 eb 97 00 00       	call   cb4c <get_thread_data>
    3361:	48 85 c0             	test   %rax,%rax
    3364:	74 3a                	je     33a0 <sgx_set_ssa_aexnotify+0x50>
    3366:	48 89 c3             	mov    %rax,%rbx
    3369:	e8 82 8a 00 00       	call   bdf0 <sgx_self_report>
    336e:	f6 40 31 04          	testb  $0x4,0x31(%rax)
    3372:	74 2c                	je     33a0 <sgx_set_ssa_aexnotify+0x50>
    3374:	48 8b 53 20          	mov    0x20(%rbx),%rdx
    3378:	0f b6 82 a7 00 00 00 	movzbl 0xa7(%rdx),%eax
    337f:	89 c1                	mov    %eax,%ecx
    3381:	83 c8 01             	or     $0x1,%eax
    3384:	83 e1 fe             	and    $0xfffffffe,%ecx
    3387:	85 ed                	test   %ebp,%ebp
    3389:	0f 44 c1             	cmove  %ecx,%eax
    338c:	88 82 a7 00 00 00    	mov    %al,0xa7(%rdx)
    3392:	48 83 c4 08          	add    $0x8,%rsp
    3396:	31 c0                	xor    %eax,%eax
    3398:	5b                   	pop    %rbx
    3399:	5d                   	pop    %rbp
    339a:	c3                   	ret
    339b:	0f 1f 44 00 00       	nopl   0x0(%rax,%rax,1)
    33a0:	48 83 c4 08          	add    $0x8,%rsp
    33a4:	b8 01 00 00 00       	mov    $0x1,%eax
    33a9:	5b                   	pop    %rbx
    33aa:	5d                   	pop    %rbp
    33ab:	c3                   	ret
    33ac:	0f 1f 40 00          	nopl   0x0(%rax)

00000000000033b0 <sgx_apply_mitigations>:
    33b0:	f3 0f 1e fa          	endbr64
    33b4:	55                   	push   %rbp
    33b5:	48 89 fd             	mov    %rdi,%rbp
    33b8:	53                   	push   %rbx
    33b9:	48 83 ec 08          	sub    $0x8,%rsp
    33bd:	e8 8a 97 00 00       	call   cb4c <get_thread_data>
    33c2:	48 8b 58 48          	mov    0x48(%rax),%rbx
    33c6:	48 85 db             	test   %rbx,%rbx
    33c9:	74 17                	je     33e2 <sgx_apply_mitigations+0x32>
    33cb:	0f 1f 44 00 00       	nopl   0x0(%rax,%rax,1)
    33d0:	48 8b 73 08          	mov    0x8(%rbx),%rsi
    33d4:	48 89 ef             	mov    %rbp,%rdi
    33d7:	ff 13                	call   *(%rbx)
    33d9:	48 8b 5b 10          	mov    0x10(%rbx),%rbx
    33dd:	48 85 db             	test   %rbx,%rbx
    33e0:	75 ee                	jne    33d0 <sgx_apply_mitigations+0x20>
    33e2:	48 83 c4 08          	add    $0x8,%rsp
    33e6:	31 c0                	xor    %eax,%eax
    33e8:	5b                   	pop    %rbx
    33e9:	5d                   	pop    %rbp
    33ea:	c3                   	ret
    33eb:	0f 1f 44 00 00       	nopl   0x0(%rax,%rax,1)

00000000000033f0 <_pthread_thread_run>:
    33f0:	f3 0f 1e fa          	endbr64
    33f4:	31 c0                	xor    %eax,%eax
    33f6:	c3                   	ret
    33f7:	66 0f 1f 84 00 00 00 	nopw   0x0(%rax,%rax,1)
    33fe:	00 00 

0000000000003400 <_ZL11do_save_tcsPv>:
    3400:	55                   	push   %rbp
    3401:	53                   	push   %rbx
    3402:	48 89 fb             	mov    %rdi,%rbx
    3405:	48 83 ec 18          	sub    $0x18,%rsp
    3409:	64 48 8b 04 25 28 00 	mov    %fs:0x28,%rax
    3410:	00 00 
    3412:	48 89 44 24 08       	mov    %rax,0x8(%rsp)
    3417:	31 c0                	xor    %eax,%eax
    3419:	48 83 3d 47 04 01 00 	cmpq   $0x0,0x10447(%rip)        # 13868 <_ZL12g_tcs_cookie>
    3420:	00 
    3421:	74 4d                	je     3470 <_ZL11do_save_tcsPv+0x70>
    3423:	bf 10 00 00 00       	mov    $0x10,%edi
    3428:	e8 63 55 00 00       	call   8990 <dlmalloc>
    342d:	48 85 c0             	test   %rax,%rax
    3430:	74 68                	je     349a <_ZL11do_save_tcsPv+0x9a>
    3432:	48 8b 15 37 04 01 00 	mov    0x10437(%rip),%rdx        # 13870 <_ZL10g_tcs_node>
    3439:	48 33 1d 28 04 01 00 	xor    0x10428(%rip),%rbx        # 13868 <_ZL12g_tcs_cookie>
    3440:	48 89 05 29 04 01 00 	mov    %rax,0x10429(%rip)        # 13870 <_ZL10g_tcs_node>
    3447:	48 89 18             	mov    %rbx,(%rax)
    344a:	48 89 50 08          	mov    %rdx,0x8(%rax)
    344e:	31 c0                	xor    %eax,%eax
    3450:	48 8b 54 24 08       	mov    0x8(%rsp),%rdx
    3455:	64 48 2b 14 25 28 00 	sub    %fs:0x28,%rdx
    345c:	00 00 
    345e:	75 62                	jne    34c2 <_ZL11do_save_tcsPv+0xc2>
    3460:	48 83 c4 18          	add    $0x18,%rsp
    3464:	5b                   	pop    %rbx
    3465:	5d                   	pop    %rbp
    3466:	c3                   	ret
    3467:	66 0f 1f 84 00 00 00 	nopw   0x0(%rax,%rax,1)
    346e:	00 00 
    3470:	48 c7 04 24 00 00 00 	movq   $0x0,(%rsp)
    3477:	00 
    3478:	48 89 e5             	mov    %rsp,%rbp
    347b:	eb 0c                	jmp    3489 <_ZL11do_save_tcsPv+0x89>
    347d:	0f 1f 00             	nopl   (%rax)
    3480:	48 8b 04 24          	mov    (%rsp),%rax
    3484:	48 85 c0             	test   %rax,%rax
    3487:	75 1f                	jne    34a8 <_ZL11do_save_tcsPv+0xa8>
    3489:	be 08 00 00 00       	mov    $0x8,%esi
    348e:	48 89 ef             	mov    %rbp,%rdi
    3491:	e8 aa f7 ff ff       	call   2c40 <sgx_read_rand>
    3496:	85 c0                	test   %eax,%eax
    3498:	74 e6                	je     3480 <_ZL11do_save_tcsPv+0x80>
    349a:	b8 01 00 00 00       	mov    $0x1,%eax
    349f:	eb af                	jmp    3450 <_ZL11do_save_tcsPv+0x50>
    34a1:	0f 1f 80 00 00 00 00 	nopl   0x0(%rax)
    34a8:	48 83 3d b8 03 01 00 	cmpq   $0x0,0x103b8(%rip)        # 13868 <_ZL12g_tcs_cookie>
    34af:	00 
    34b0:	0f 85 6d ff ff ff    	jne    3423 <_ZL11do_save_tcsPv+0x23>
    34b6:	48 89 05 ab 03 01 00 	mov    %rax,0x103ab(%rip)        # 13868 <_ZL12g_tcs_cookie>
    34bd:	e9 61 ff ff ff       	jmp    3423 <_ZL11do_save_tcsPv+0x23>
    34c2:	e8 59 80 00 00       	call   b520 <__stack_chk_fail>
    34c7:	66 0f 1f 84 00 00 00 	nopw   0x0(%rax,%rax,1)
    34ce:	00 00 

00000000000034d0 <_ZL18add_static_threadsPVK9_layout_tS1_m>:
    34d0:	48 39 f7             	cmp    %rsi,%rdi
    34d3:	0f 83 cf 00 00 00    	jae    35a8 <_ZL18add_static_threadsPVK9_layout_tS1_m+0xd8>
    34d9:	41 56                	push   %r14
    34db:	41 55                	push   %r13
    34dd:	49 89 f5             	mov    %rsi,%r13
    34e0:	41 54                	push   %r12
    34e2:	49 89 d4             	mov    %rdx,%r12
    34e5:	55                   	push   %rbp
    34e6:	53                   	push   %rbx
    34e7:	48 89 fb             	mov    %rdi,%rbx
    34ea:	eb 0d                	jmp    34f9 <_ZL18add_static_threadsPVK9_layout_tS1_m+0x29>
    34ec:	0f 1f 40 00          	nopl   0x0(%rax)
    34f0:	48 83 c3 20          	add    $0x20,%rbx
    34f4:	4c 39 eb             	cmp    %r13,%rbx
    34f7:	73 77                	jae    3570 <_ZL18add_static_threadsPVK9_layout_tS1_m+0xa0>
    34f9:	0f b7 03             	movzwl (%rbx),%eax
    34fc:	f6 c4 10             	test   $0x10,%ah
    34ff:	75 13                	jne    3514 <_ZL18add_static_threadsPVK9_layout_tS1_m+0x44>
    3501:	48 8b 43 18          	mov    0x18(%rbx),%rax
    3505:	f6 c4 01             	test   $0x1,%ah
    3508:	74 0a                	je     3514 <_ZL18add_static_threadsPVK9_layout_tS1_m+0x44>
    350a:	0f b7 43 02          	movzwl 0x2(%rbx),%eax
    350e:	66 83 f8 03          	cmp    $0x3,%ax
    3512:	74 6c                	je     3580 <_ZL18add_static_threadsPVK9_layout_tS1_m+0xb0>
    3514:	0f b7 03             	movzwl (%rbx),%eax
    3517:	f6 c4 10             	test   $0x10,%ah
    351a:	74 d4                	je     34f0 <_ZL18add_static_threadsPVK9_layout_tS1_m+0x20>
    351c:	8b 43 04             	mov    0x4(%rbx),%eax
    351f:	85 c0                	test   %eax,%eax
    3521:	74 cd                	je     34f0 <_ZL18add_static_threadsPVK9_layout_tS1_m+0x20>
    3523:	31 ed                	xor    %ebp,%ebp
    3525:	45 31 f6             	xor    %r14d,%r14d
    3528:	eb 10                	jmp    353a <_ZL18add_static_threadsPVK9_layout_tS1_m+0x6a>
    352a:	66 0f 1f 44 00 00    	nopw   0x0(%rax,%rax,1)
    3530:	8b 43 04             	mov    0x4(%rbx),%eax
    3533:	83 c5 01             	add    $0x1,%ebp
    3536:	39 c5                	cmp    %eax,%ebp
    3538:	73 b6                	jae    34f0 <_ZL18add_static_threadsPVK9_layout_tS1_m+0x20>
    353a:	48 8b 43 08          	mov    0x8(%rbx),%rax
    353e:	0f b7 7b 02          	movzwl 0x2(%rbx),%edi
    3542:	48 89 de             	mov    %rbx,%rsi
    3545:	f7 df                	neg    %edi
    3547:	49 01 c6             	add    %rax,%r14
    354a:	48 63 ff             	movslq %edi,%rdi
    354d:	4c 89 f2             	mov    %r14,%rdx
    3550:	48 c1 e7 05          	shl    $0x5,%rdi
    3554:	48 01 df             	add    %rbx,%rdi
    3557:	e8 74 ff ff ff       	call   34d0 <_ZL18add_static_threadsPVK9_layout_tS1_m>
    355c:	85 c0                	test   %eax,%eax
    355e:	74 d0                	je     3530 <_ZL18add_static_threadsPVK9_layout_tS1_m+0x60>
    3560:	5b                   	pop    %rbx
    3561:	5d                   	pop    %rbp
    3562:	41 5c                	pop    %r12
    3564:	41 5d                	pop    %r13
    3566:	41 5e                	pop    %r14
    3568:	c3                   	ret
    3569:	0f 1f 80 00 00 00 00 	nopl   0x0(%rax)
    3570:	5b                   	pop    %rbx
    3571:	31 c0                	xor    %eax,%eax
    3573:	5d                   	pop    %rbp
    3574:	41 5c                	pop    %r12
    3576:	41 5d                	pop    %r13
    3578:	41 5e                	pop    %r14
    357a:	c3                   	ret
    357b:	0f 1f 44 00 00       	nopl   0x0(%rax,%rax,1)
    3580:	48 8b 6b 08          	mov    0x8(%rbx),%rbp
    3584:	e8 78 95 00 00       	call   cb01 <get_enclave_base>
    3589:	4c 01 e5             	add    %r12,%rbp
    358c:	48 8d 3c 28          	lea    (%rax,%rbp,1),%rdi
    3590:	e8 6b fe ff ff       	call   3400 <_ZL11do_save_tcsPv>
    3595:	85 c0                	test   %eax,%eax
    3597:	0f 84 53 ff ff ff    	je     34f0 <_ZL18add_static_threadsPVK9_layout_tS1_m+0x20>
    359d:	b8 ff ff ff ff       	mov    $0xffffffff,%eax
    35a2:	eb bc                	jmp    3560 <_ZL18add_static_threadsPVK9_layout_tS1_m+0x90>
    35a4:	0f 1f 40 00          	nopl   0x0(%rax)
    35a8:	31 c0                	xor    %eax,%eax
    35aa:	c3                   	ret
    35ab:	0f 1f 44 00 00       	nopl   0x0(%rax,%rax,1)

00000000000035b0 <_ZL10trts_ecalljPv>:
    35b0:	f3 0f 1e fa          	endbr64
    35b4:	41 55                	push   %r13
    35b6:	41 54                	push   %r12
    35b8:	55                   	push   %rbp
    35b9:	48 89 f5             	mov    %rsi,%rbp
    35bc:	53                   	push   %rbx
    35bd:	89 fb                	mov    %edi,%ebx
    35bf:	48 83 ec 08          	sub    $0x8,%rsp
    35c3:	0f b6 05 56 dc 00 00 	movzbl 0xdc56(%rip),%eax        # 11220 <_ZL16g_is_first_ecall>
    35ca:	84 c0                	test   %al,%al
    35cc:	0f 85 b6 00 00 00    	jne    3688 <_ZL10trts_ecalljPv+0xd8>
    35d2:	83 fb fa             	cmp    $0xfffffffa,%ebx
    35d5:	0f 84 8d 00 00 00    	je     3668 <_ZL10trts_ecalljPv+0xb8>
    35db:	4c 8d 25 de d7 00 00 	lea    0xd7de(%rip),%r12        # 10dc0 <g_ecall_table>
    35e2:	49 3b 1c 24          	cmp    (%r12),%rbx
    35e6:	73 68                	jae    3650 <_ZL10trts_ecalljPv+0xa0>
    35e8:	e8 5f 95 00 00       	call   cb4c <get_thread_data>
    35ed:	0f ae e8             	lfence
    35f0:	48 8b 50 08          	mov    0x8(%rax),%rdx
    35f4:	48 3b 50 10          	cmp    0x10(%rax),%rdx
    35f8:	0f 84 b2 00 00 00    	je     36b0 <_ZL10trts_ecalljPv+0x100>
    35fe:	48 81 7a 20 44 49 43 	cmpq   $0x4f434944,0x20(%rdx)
    3605:	4f 
    3606:	0f 85 5b 01 00 00    	jne    3767 <_ZL10trts_ecalljPv+0x1b7>
    360c:	48 8d 05 ed 99 00 00 	lea    0x99ed(%rip),%rax        # d000 <g_dyn_entry_table>
    3613:	48 8b 52 28          	mov    0x28(%rdx),%rdx
    3617:	48 3b 10             	cmp    (%rax),%rdx
    361a:	73 34                	jae    3650 <_ZL10trts_ecalljPv+0xa0>
    361c:	49 0f af 14 24       	imul   (%r12),%rdx
    3621:	48 01 d8             	add    %rbx,%rax
    3624:	80 7c 02 08 00       	cmpb   $0x0,0x8(%rdx,%rax,1)
    3629:	74 6c                	je     3697 <_ZL10trts_ecalljPv+0xe7>
    362b:	48 c1 e3 04          	shl    $0x4,%rbx
    362f:	31 f6                	xor    %esi,%esi
    3631:	49 8b 5c 1c 08       	mov    0x8(%r12,%rbx,1),%rbx
    3636:	48 89 df             	mov    %rbx,%rdi
    3639:	e8 02 f4 ff ff       	call   2a40 <sgx_is_within_enclave>
    363e:	85 c0                	test   %eax,%eax
    3640:	0f 84 8a 00 00 00    	je     36d0 <_ZL10trts_ecalljPv+0x120>
    3646:	48 89 d8             	mov    %rbx,%rax
    3649:	eb 24                	jmp    366f <_ZL10trts_ecalljPv+0xbf>
    364b:	0f 1f 44 00 00       	nopl   0x0(%rax,%rax,1)
    3650:	41 bc 01 10 00 00    	mov    $0x1001,%r12d
    3656:	48 83 c4 08          	add    $0x8,%rsp
    365a:	44 89 e0             	mov    %r12d,%eax
    365d:	5b                   	pop    %rbx
    365e:	5d                   	pop    %rbp
    365f:	41 5c                	pop    %r12
    3661:	41 5d                	pop    %r13
    3663:	c3                   	ret
    3664:	0f 1f 40 00          	nopl   0x0(%rax)
    3668:	48 8d 05 81 fd ff ff 	lea    -0x27f(%rip),%rax        # 33f0 <_pthread_thread_run>
    366f:	0f ae e8             	lfence
    3672:	48 83 c4 08          	add    $0x8,%rsp
    3676:	48 89 ef             	mov    %rbp,%rdi
    3679:	5b                   	pop    %rbx
    367a:	5d                   	pop    %rbp
    367b:	41 5c                	pop    %r12
    367d:	41 5d                	pop    %r13
    367f:	ff e0                	jmp    *%rax
    3681:	0f 1f 80 00 00 00 00 	nopl   0x0(%rax)
    3688:	e8 bf 94 00 00       	call   cb4c <get_thread_data>
    368d:	48 8b 48 10          	mov    0x10(%rax),%rcx
    3691:	48 39 48 08          	cmp    %rcx,0x8(%rax)
    3695:	74 49                	je     36e0 <_ZL10trts_ecalljPv+0x130>
    3697:	48 83 c4 08          	add    $0x8,%rsp
    369b:	41 bc 07 10 00 00    	mov    $0x1007,%r12d
    36a1:	5b                   	pop    %rbx
    36a2:	44 89 e0             	mov    %r12d,%eax
    36a5:	5d                   	pop    %rbp
    36a6:	41 5c                	pop    %r12
    36a8:	41 5d                	pop    %r13
    36aa:	c3                   	ret
    36ab:	0f 1f 44 00 00       	nopl   0x0(%rax,%rax,1)
    36b0:	48 89 d8             	mov    %rbx,%rax
    36b3:	48 c1 e0 04          	shl    $0x4,%rax
    36b7:	41 80 7c 04 10 00    	cmpb   $0x0,0x10(%r12,%rax,1)
    36bd:	0f 84 68 ff ff ff    	je     362b <_ZL10trts_ecalljPv+0x7b>
    36c3:	eb d2                	jmp    3697 <_ZL10trts_ecalljPv+0xe7>
    36c5:	4c 89 ef             	mov    %r13,%rdi
    36c8:	e8 c3 51 00 00       	call   8890 <sgx_spin_unlock>
    36cd:	0f 1f 00             	nopl   (%rax)
    36d0:	41 bc 01 00 00 00    	mov    $0x1,%r12d
    36d6:	e9 7b ff ff ff       	jmp    3656 <_ZL10trts_ecalljPv+0xa6>
    36db:	0f 1f 44 00 00       	nopl   0x0(%rax,%rax,1)
    36e0:	4c 8d 2d 7d 01 01 00 	lea    0x1017d(%rip),%r13        # 13864 <_ZL10g_ife_lock>
    36e7:	4c 89 ef             	mov    %r13,%rdi
    36ea:	e8 11 51 00 00       	call   8800 <sgx_spin_lock>
    36ef:	0f b6 05 2a db 00 00 	movzbl 0xdb2a(%rip),%eax        # 11220 <_ZL16g_is_first_ecall>
    36f6:	84 c0                	test   %al,%al
    36f8:	74 53                	je     374d <_ZL10trts_ecalljPv+0x19d>
    36fa:	48 8d 05 fb d6 00 00 	lea    0xd6fb(%rip),%rax        # 10dfc <EDMM_supported>
    3701:	8b 00                	mov    (%rax),%eax
    3703:	85 c0                	test   %eax,%eax
    3705:	74 3a                	je     3741 <_ZL10trts_ecalljPv+0x191>
    3707:	48 8d 05 52 fa 00 00 	lea    0xfa52(%rip),%rax        # 13160 <g_global_data>
    370e:	31 d2                	xor    %edx,%edx
    3710:	8b b0 58 01 00 00    	mov    0x158(%rax),%esi
    3716:	48 8d b8 60 01 00 00 	lea    0x160(%rax),%rdi
    371d:	48 c1 e6 05          	shl    $0x5,%rsi
    3721:	48 01 fe             	add    %rdi,%rsi
    3724:	e8 a7 fd ff ff       	call   34d0 <_ZL18add_static_threadsPVK9_layout_tS1_m>
    3729:	85 c0                	test   %eax,%eax
    372b:	75 98                	jne    36c5 <_ZL10trts_ecalljPv+0x115>
    372d:	e8 cf 93 00 00       	call   cb01 <get_enclave_base>
    3732:	48 89 c7             	mov    %rax,%rdi
    3735:	e8 96 1b 00 00       	call   52d0 <change_protection>
    373a:	41 89 c4             	mov    %eax,%r12d
    373d:	85 c0                	test   %eax,%eax
    373f:	75 19                	jne    375a <_ZL10trts_ecalljPv+0x1aa>
    3741:	e8 ca 1f 00 00       	call   5710 <init_global_object>
    3746:	c6 05 d3 da 00 00 00 	movb   $0x0,0xdad3(%rip)        # 11220 <_ZL16g_is_first_ecall>
    374d:	4c 89 ef             	mov    %r13,%rdi
    3750:	e8 3b 51 00 00       	call   8890 <sgx_spin_unlock>
    3755:	e9 78 fe ff ff       	jmp    35d2 <_ZL10trts_ecalljPv+0x22>
    375a:	4c 89 ef             	mov    %r13,%rdi
    375d:	e8 2e 51 00 00       	call   8890 <sgx_spin_unlock>
    3762:	e9 ef fe ff ff       	jmp    3656 <_ZL10trts_ecalljPv+0xa6>
    3767:	e8 d4 97 00 00       	call   cf40 <abort>
    376c:	0f 1f 40 00          	nopl   0x0(%rax)

0000000000003770 <_Z30_random_stack_noinline_wrapperI9_status_tJjPvEJRiRS1_EET_PFS4_DpT0_EDpOT1_.constprop.0.isra.0>:
    3770:	e9 3b fe ff ff       	jmp    35b0 <_ZL10trts_ecalljPv>
    3775:	66 2e 0f 1f 84 00 00 	cs nopw 0x0(%rax,%rax,1)
    377c:	00 00 00 
    377f:	90                   	nop

0000000000003780 <_Z16_pthread_enabledv>:
    3780:	f3 0f 1e fa          	endbr64
    3784:	31 c0                	xor    %eax,%eax
    3786:	c3                   	ret
    3787:	66 0f 1f 84 00 00 00 	nopw   0x0(%rax,%rax,1)
    378e:	00 00 

0000000000003790 <_Z24_pthread_tls_store_state9_status_t>:
    3790:	f3 0f 1e fa          	endbr64
    3794:	c3                   	ret
    3795:	66 2e 0f 1f 84 00 00 	cs nopw 0x0(%rax,%rax,1)
    379c:	00 00 00 
    379f:	90                   	nop

00000000000037a0 <_Z22_pthread_tls_get_statev>:
    37a0:	f3 0f 1e fa          	endbr64
    37a4:	31 c0                	xor    %eax,%eax
    37a6:	c3                   	ret
    37a7:	66 0f 1f 84 00 00 00 	nopw   0x0(%rax,%rax,1)
    37ae:	00 00 

00000000000037b0 <_Z26_pthread_tls_store_contextPv>:
    37b0:	f3 0f 1e fa          	endbr64
    37b4:	c3                   	ret
    37b5:	66 2e 0f 1f 84 00 00 	cs nopw 0x0(%rax,%rax,1)
    37bc:	00 00 00 
    37bf:	90                   	nop

00000000000037c0 <_Z20_pthread_wakeup_joinPv>:
    37c0:	f3 0f 1e fa          	endbr64
    37c4:	c3                   	ret
    37c5:	66 2e 0f 1f 84 00 00 	cs nopw 0x0(%rax,%rax,1)
    37cc:	00 00 00 
    37cf:	90                   	nop

00000000000037d0 <_Z24_pthread_tls_destructorsv>:
    37d0:	f3 0f 1e fa          	endbr64
    37d4:	c3                   	ret
    37d5:	66 2e 0f 1f 84 00 00 	cs nopw 0x0(%rax,%rax,1)
    37dc:	00 00 00 
    37df:	90                   	nop

00000000000037e0 <tc_set_idle>:
    37e0:	f3 0f 1e fa          	endbr64
    37e4:	c3                   	ret
    37e5:	66 2e 0f 1f 84 00 00 	cs nopw 0x0(%rax,%rax,1)
    37ec:	00 00 00 
    37ef:	90                   	nop

00000000000037f0 <do_init_thread>:
    37f0:	f3 0f 1e fa          	endbr64
    37f4:	41 57                	push   %r15
    37f6:	66 48 0f 6e d7       	movq   %rdi,%xmm2
    37fb:	ba c0 00 00 00       	mov    $0xc0,%edx
    3800:	41 56                	push   %r14
    3802:	66 0f 6c d2          	punpcklqdq %xmm2,%xmm2
    3806:	41 55                	push   %r13
    3808:	41 54                	push   %r12
    380a:	41 89 f4             	mov    %esi,%r12d
    380d:	55                   	push   %rbp
    380e:	48 89 fd             	mov    %rdi,%rbp
    3811:	53                   	push   %rbx
    3812:	48 83 ec 38          	sub    $0x38,%rsp
    3816:	64 48 8b 04 25 28 00 	mov    %fs:0x28,%rax
    381d:	00 00 
    381f:	48 89 44 24 28       	mov    %rax,0x28(%rsp)
    3824:	48 8d 05 35 f9 00 00 	lea    0xf935(%rip),%rax        # 13160 <g_global_data>
    382b:	0f 29 14 24          	movaps %xmm2,(%rsp)
    382f:	48 8b 58 50          	mov    0x50(%rax),%rbx
    3833:	48 8d 70 50          	lea    0x50(%rax),%rsi
    3837:	48 01 fb             	add    %rdi,%rbx
    383a:	48 89 df             	mov    %rbx,%rdi
    383d:	4c 8b 7b 28          	mov    0x28(%rbx),%r15
    3841:	4c 8b 73 30          	mov    0x30(%rbx),%r14
    3845:	4c 8b ab b0 00 00 00 	mov    0xb0(%rbx),%r13
    384c:	e8 0f 7a 00 00       	call   b260 <memcpy>
    3851:	48 8d 85 00 fc ff ff 	lea    -0x400(%rbp),%rax
    3858:	f3 0f 6f 1b          	movdqu (%rbx),%xmm3
    385c:	f3 0f 6f 6b 10       	movdqu 0x10(%rbx),%xmm5
    3861:	66 48 0f 6e c0       	movq   %rax,%xmm0
    3866:	48 8b 43 18          	mov    0x18(%rbx),%rax
    386a:	f3 0f 6f 73 68       	movdqu 0x68(%rbx),%xmm6
    386f:	66 48 0f 6e cd       	movq   %rbp,%xmm1
    3874:	66 0f 6f 14 24       	movdqa (%rsp),%xmm2
    3879:	66 48 0f 6e e5       	movq   %rbp,%xmm4
    387e:	66 0f 6c c8          	punpcklqdq %xmm0,%xmm1
    3882:	48 01 6b 20          	add    %rbp,0x20(%rbx)
    3886:	48 01 e8             	add    %rbp,%rax
    3889:	66 0f 6c c4          	punpcklqdq %xmm4,%xmm0
    388d:	66 0f d4 cb          	paddq  %xmm3,%xmm1
    3891:	48 01 6b 58          	add    %rbp,0x58(%rbx)
    3895:	48 89 83 b0 00 00 00 	mov    %rax,0xb0(%rbx)
    389c:	48 8d 05 35 d5 00 00 	lea    0xd535(%rip),%rax        # 10dd8 <__intel_security_cookie>
    38a3:	66 0f d4 c5          	paddq  %xmm5,%xmm0
    38a7:	66 0f d4 d6          	paddq  %xmm6,%xmm2
    38ab:	4c 89 7b 28          	mov    %r15,0x28(%rbx)
    38af:	48 8b 00             	mov    (%rax),%rax
    38b2:	4c 89 73 30          	mov    %r14,0x30(%rbx)
    38b6:	0f 11 53 68          	movups %xmm2,0x68(%rbx)
    38ba:	0f 11 0b             	movups %xmm1,(%rbx)
    38bd:	0f 11 43 10          	movups %xmm0,0x10(%rbx)
    38c1:	48 89 85 08 fc fe ff 	mov    %rax,-0x103f8(%rbp)
    38c8:	48 8d 05 2d d5 00 00 	lea    0xd52d(%rip),%rax        # 10dfc <EDMM_supported>
    38cf:	8b 00                	mov    (%rax),%eax
    38d1:	85 c0                	test   %eax,%eax
    38d3:	48 8d 05 0a d5 00 00 	lea    0xd50a(%rip),%rax        # 10de4 <g_aexnotify_supported>
    38da:	0f 85 f0 00 00 00    	jne    39d0 <do_init_thread+0x1e0>
    38e0:	83 38 01             	cmpl   $0x1,(%rax)
    38e3:	0f 84 17 01 00 00    	je     3a00 <do_init_thread+0x210>
    38e9:	4d 85 ed             	test   %r13,%r13
    38ec:	0f 85 c8 00 00 00    	jne    39ba <do_init_thread+0x1ca>
    38f2:	66 0f 1f 44 00 00    	nopw   0x0(%rax,%rax,1)
    38f8:	48 c7 44 24 18 00 00 	movq   $0x0,0x18(%rsp)
    38ff:	00 00 
    3901:	48 c7 44 24 20 00 00 	movq   $0x0,0x20(%rsp)
    3908:	00 00 
    390a:	e8 f2 91 00 00       	call   cb01 <get_enclave_base>
    390f:	48 8d 54 24 20       	lea    0x20(%rsp),%rdx
    3914:	48 8d 74 24 18       	lea    0x18(%rsp),%rsi
    3919:	48 89 c7             	mov    %rax,%rdi
    391c:	e8 ef 16 00 00       	call   5010 <elf_tls_info>
    3921:	89 c2                	mov    %eax,%edx
    3923:	b8 01 00 00 00       	mov    $0x1,%eax
    3928:	85 d2                	test   %edx,%edx
    392a:	75 0a                	jne    3936 <do_init_thread+0x146>
    392c:	48 83 7c 24 18 00    	cmpq   $0x0,0x18(%rsp)
    3932:	75 2c                	jne    3960 <do_init_thread+0x170>
    3934:	31 c0                	xor    %eax,%eax
    3936:	48 8b 54 24 28       	mov    0x28(%rsp),%rdx
    393b:	64 48 2b 14 25 28 00 	sub    %fs:0x28,%rdx
    3942:	00 00 
    3944:	0f 85 00 01 00 00    	jne    3a4a <do_init_thread+0x25a>
    394a:	48 83 c4 38          	add    $0x38,%rsp
    394e:	5b                   	pop    %rbx
    394f:	5d                   	pop    %rbp
    3950:	41 5c                	pop    %r12
    3952:	41 5d                	pop    %r13
    3954:	41 5e                	pop    %r14
    3956:	41 5f                	pop    %r15
    3958:	c3                   	ret
    3959:	0f 1f 80 00 00 00 00 	nopl   0x0(%rax)
    3960:	48 8b 03             	mov    (%rbx),%rax
    3963:	48 8b 7b 68          	mov    0x68(%rbx),%rdi
    3967:	31 f6                	xor    %esi,%esi
    3969:	48 8d 90 ff 0f 00 00 	lea    0xfff(%rax),%rdx
    3970:	48 29 fa             	sub    %rdi,%rdx
    3973:	48 81 e7 00 f0 ff ff 	and    $0xfffffffffffff000,%rdi
    397a:	48 81 e2 00 f0 ff ff 	and    $0xfffffffffffff000,%rdx
    3981:	e8 1a 7b 00 00       	call   b4a0 <memset>
    3986:	48 8b 7b 68          	mov    0x68(%rbx),%rdi
    398a:	48 8b 03             	mov    (%rbx),%rax
    398d:	48 8b 54 24 20       	mov    0x20(%rsp),%rdx
    3992:	48 8b 74 24 18       	mov    0x18(%rsp),%rsi
    3997:	48 29 f8             	sub    %rdi,%rax
    399a:	48 39 d0             	cmp    %rdx,%rax
    399d:	72 95                	jb     3934 <do_init_thread+0x144>
    399f:	e8 bc 78 00 00       	call   b260 <memcpy>
    39a4:	eb 8e                	jmp    3934 <do_init_thread+0x144>
    39a6:	66 2e 0f 1f 84 00 00 	cs nopw 0x0(%rax,%rax,1)
    39ad:	00 00 00 
    39b0:	83 f8 01             	cmp    $0x1,%eax
    39b3:	74 7b                	je     3a30 <do_init_thread+0x240>
    39b5:	4d 85 ed             	test   %r13,%r13
    39b8:	74 5e                	je     3a18 <do_init_thread+0x228>
    39ba:	4c 89 ab b0 00 00 00 	mov    %r13,0xb0(%rbx)
    39c1:	e9 32 ff ff ff       	jmp    38f8 <do_init_thread+0x108>
    39c6:	66 2e 0f 1f 84 00 00 	cs nopw 0x0(%rax,%rax,1)
    39cd:	00 00 00 
    39d0:	8b 00                	mov    (%rax),%eax
    39d2:	45 84 e4             	test   %r12b,%r12b
    39d5:	74 d9                	je     39b0 <do_init_thread+0x1c0>
    39d7:	48 c7 43 30 01 00 00 	movq   $0x1,0x30(%rbx)
    39de:	00 
    39df:	83 f8 01             	cmp    $0x1,%eax
    39e2:	74 5c                	je     3a40 <do_init_thread+0x250>
    39e4:	4d 85 ed             	test   %r13,%r13
    39e7:	75 d1                	jne    39ba <do_init_thread+0x1ca>
    39e9:	e8 42 f7 ff ff       	call   3130 <get_dynamic_stack_max_page>
    39ee:	89 c0                	mov    %eax,%eax
    39f0:	48 c1 e0 0c          	shl    $0xc,%rax
    39f4:	48 01 83 b0 00 00 00 	add    %rax,0xb0(%rbx)
    39fb:	e9 f8 fe ff ff       	jmp    38f8 <do_init_thread+0x108>
    3a00:	48 c7 43 50 01 00 00 	movq   $0x1,0x50(%rbx)
    3a07:	00 
    3a08:	4d 85 ed             	test   %r13,%r13
    3a0b:	75 ad                	jne    39ba <do_init_thread+0x1ca>
    3a0d:	e9 e6 fe ff ff       	jmp    38f8 <do_init_thread+0x108>
    3a12:	66 0f 1f 44 00 00    	nopw   0x0(%rax,%rax,1)
    3a18:	48 89 ef             	mov    %rbp,%rdi
    3a1b:	e8 40 f6 ff ff       	call   3060 <is_dynamic_thread>
    3a20:	85 c0                	test   %eax,%eax
    3a22:	75 c5                	jne    39e9 <do_init_thread+0x1f9>
    3a24:	e9 cf fe ff ff       	jmp    38f8 <do_init_thread+0x108>
    3a29:	0f 1f 80 00 00 00 00 	nopl   0x0(%rax)
    3a30:	48 c7 43 50 01 00 00 	movq   $0x1,0x50(%rbx)
    3a37:	00 
    3a38:	e9 78 ff ff ff       	jmp    39b5 <do_init_thread+0x1c5>
    3a3d:	0f 1f 00             	nopl   (%rax)
    3a40:	48 c7 43 50 01 00 00 	movq   $0x1,0x50(%rbx)
    3a47:	00 
    3a48:	eb 9a                	jmp    39e4 <do_init_thread+0x1f4>
    3a4a:	e8 d1 7a 00 00       	call   b520 <__stack_chk_fail>
    3a4f:	90                   	nop

0000000000003a50 <do_ecall>:
    3a50:	f3 0f 1e fa          	endbr64
    3a54:	53                   	push   %rbx
    3a55:	48 89 d3             	mov    %rdx,%rbx
    3a58:	48 83 c4 80          	add    $0xffffffffffffff80,%rsp
    3a5c:	89 7c 24 20          	mov    %edi,0x20(%rsp)
    3a60:	48 89 74 24 08       	mov    %rsi,0x8(%rsp)
    3a65:	64 48 8b 04 25 28 00 	mov    %fs:0x28,%rax
    3a6c:	00 00 
    3a6e:	48 89 44 24 78       	mov    %rax,0x78(%rsp)
    3a73:	31 c0                	xor    %eax,%eax
    3a75:	e8 93 90 00 00       	call   cb0d <get_enclave_state>
    3a7a:	89 c2                	mov    %eax,%edx
    3a7c:	b8 01 00 00 00       	mov    $0x1,%eax
    3a81:	83 fa 02             	cmp    $0x2,%edx
    3a84:	74 1a                	je     3aa0 <do_ecall+0x50>
    3a86:	48 8b 54 24 78       	mov    0x78(%rsp),%rdx
    3a8b:	64 48 2b 14 25 28 00 	sub    %fs:0x28,%rdx
    3a92:	00 00 
    3a94:	0f 85 0c 02 00 00    	jne    3ca6 <do_ecall+0x256>
    3a9a:	48 83 ec 80          	sub    $0xffffffffffffff80,%rsp
    3a9e:	5b                   	pop    %rbx
    3a9f:	c3                   	ret
    3aa0:	e8 a7 90 00 00       	call   cb4c <get_thread_data>
    3aa5:	48 89 44 24 10       	mov    %rax,0x10(%rsp)
    3aaa:	48 85 c0             	test   %rax,%rax
    3aad:	0f 84 31 01 00 00    	je     3be4 <do_ecall+0x194>
    3ab3:	48 8b 44 24 10       	mov    0x10(%rsp),%rax
    3ab8:	48 8b 48 08          	mov    0x8(%rax),%rcx
    3abc:	48 39 48 10          	cmp    %rcx,0x10(%rax)
    3ac0:	0f 84 0a 01 00 00    	je     3bd0 <do_ecall+0x180>
    3ac6:	e8 81 90 00 00       	call   cb4c <get_thread_data>
    3acb:	48 83 78 50 01       	cmpq   $0x1,0x50(%rax)
    3ad0:	48 89 44 24 18       	mov    %rax,0x18(%rsp)
    3ad5:	0f 84 25 01 00 00    	je     3c00 <do_ecall+0x1b0>
    3adb:	48 8b 44 24 18       	mov    0x18(%rsp),%rax
    3ae0:	48 8b 48 08          	mov    0x8(%rax),%rcx
    3ae4:	48 39 48 10          	cmp    %rcx,0x10(%rax)
    3ae8:	74 56                	je     3b40 <do_ecall+0xf0>
    3aea:	48 8b 74 24 08       	mov    0x8(%rsp),%rsi
    3aef:	8b 7c 24 20          	mov    0x20(%rsp),%edi
    3af3:	e8 b8 fa ff ff       	call   35b0 <_ZL10trts_ecalljPv>
    3af8:	48 8b 5c 24 18       	mov    0x18(%rsp),%rbx
    3afd:	48 89 5c 24 10       	mov    %rbx,0x10(%rsp)
    3b02:	48 8d 15 57 f6 00 00 	lea    0xf657(%rip),%rdx        # 13160 <g_global_data>
    3b09:	48 8b 52 38          	mov    0x38(%rdx),%rdx
    3b0d:	48 85 d2             	test   %rdx,%rdx
    3b10:	0f 84 70 ff ff ff    	je     3a86 <do_ecall+0x36>
    3b16:	48 8b 4c 24 10       	mov    0x10(%rsp),%rcx
    3b1b:	48 8b 59 08          	mov    0x8(%rcx),%rbx
    3b1f:	48 39 59 10          	cmp    %rbx,0x10(%rcx)
    3b23:	0f 85 5d ff ff ff    	jne    3a86 <do_ecall+0x36>
    3b29:	89 44 24 2c          	mov    %eax,0x2c(%rsp)
    3b2d:	e8 ae fc ff ff       	call   37e0 <tc_set_idle>
    3b32:	8b 44 24 2c          	mov    0x2c(%rsp),%eax
    3b36:	e9 4b ff ff ff       	jmp    3a86 <do_ecall+0x36>
    3b3b:	0f 1f 44 00 00       	nopl   0x0(%rax,%rax,1)
    3b40:	31 ff                	xor    %edi,%edi
    3b42:	e8 49 f2 ff ff       	call   2d90 <sgx_wrpkru>
    3b47:	e8 34 fc ff ff       	call   3780 <_Z16_pthread_enabledv>
    3b4c:	84 c0                	test   %al,%al
    3b4e:	0f 84 0c 01 00 00    	je     3c60 <do_ecall+0x210>
    3b54:	48 8b 44 24 18       	mov    0x18(%rsp),%rax
    3b59:	66 0f ef c0          	pxor   %xmm0,%xmm0
    3b5d:	48 8d 7c 24 30       	lea    0x30(%rsp),%rdi
    3b62:	0f 29 44 24 30       	movaps %xmm0,0x30(%rsp)
    3b67:	48 89 44 24 10       	mov    %rax,0x10(%rsp)
    3b6c:	0f 29 44 24 40       	movaps %xmm0,0x40(%rsp)
    3b71:	0f 29 44 24 50       	movaps %xmm0,0x50(%rsp)
    3b76:	0f 29 44 24 60       	movaps %xmm0,0x60(%rsp)
    3b7b:	e8 d2 7b 00 00       	call   b752 <_setjmp>
    3b80:	f3 0f 1e fa          	endbr64
    3b84:	85 c0                	test   %eax,%eax
    3b86:	0f 84 94 00 00 00    	je     3c20 <do_ecall+0x1d0>
    3b8c:	48 8b 4c 24 18       	mov    0x18(%rsp),%rcx
    3b91:	48 8b 41 10          	mov    0x10(%rcx),%rax
    3b95:	48 89 41 08          	mov    %rax,0x8(%rcx)
    3b99:	b8 09 00 00 00       	mov    $0x9,%eax
    3b9e:	bf 09 00 00 00       	mov    $0x9,%edi
    3ba3:	89 44 24 28          	mov    %eax,0x28(%rsp)
    3ba7:	e8 e4 fb ff ff       	call   3790 <_Z24_pthread_tls_store_state9_status_t>
    3bac:	8b 44 24 28          	mov    0x28(%rsp),%eax
    3bb0:	89 44 24 24          	mov    %eax,0x24(%rsp)
    3bb4:	e8 17 fc ff ff       	call   37d0 <_Z24_pthread_tls_destructorsv>
    3bb9:	48 8b 7c 24 08       	mov    0x8(%rsp),%rdi
    3bbe:	e8 fd fb ff ff       	call   37c0 <_Z20_pthread_wakeup_joinPv>
    3bc3:	8b 44 24 24          	mov    0x24(%rsp),%eax
    3bc7:	e9 36 ff ff ff       	jmp    3b02 <do_ecall+0xb2>
    3bcc:	0f 1f 40 00          	nopl   0x0(%rax)
    3bd0:	48 8d 05 89 f5 00 00 	lea    0xf589(%rip),%rax        # 13160 <g_global_data>
    3bd7:	48 8b 40 38          	mov    0x38(%rax),%rax
    3bdb:	48 85 c0             	test   %rax,%rax
    3bde:	0f 84 a4 00 00 00    	je     3c88 <do_ecall+0x238>
    3be4:	31 f6                	xor    %esi,%esi
    3be6:	48 89 df             	mov    %rbx,%rdi
    3be9:	e8 02 fc ff ff       	call   37f0 <do_init_thread>
    3bee:	85 c0                	test   %eax,%eax
    3bf0:	0f 84 d0 fe ff ff    	je     3ac6 <do_ecall+0x76>
    3bf6:	e9 8b fe ff ff       	jmp    3a86 <do_ecall+0x36>
    3bfb:	0f 1f 44 00 00       	nopl   0x0(%rax,%rax,1)
    3c00:	48 8b 44 24 18       	mov    0x18(%rsp),%rax
    3c05:	bf 01 00 00 00       	mov    $0x1,%edi
    3c0a:	48 c7 40 50 00 00 00 	movq   $0x0,0x50(%rax)
    3c11:	00 
    3c12:	e8 39 f7 ff ff       	call   3350 <sgx_set_ssa_aexnotify>
    3c17:	e9 bf fe ff ff       	jmp    3adb <do_ecall+0x8b>
    3c1c:	0f 1f 40 00          	nopl   0x0(%rax)
    3c20:	48 8d 7c 24 30       	lea    0x30(%rsp),%rdi
    3c25:	e8 86 fb ff ff       	call   37b0 <_Z26_pthread_tls_store_contextPv>
    3c2a:	0f c7 f0             	rdrand %eax
    3c2d:	73 fb                	jae    3c2a <do_ecall+0x1da>
    3c2f:	8b 5c 24 20          	mov    0x20(%rsp),%ebx
    3c33:	48 8b 74 24 08       	mov    0x8(%rsp),%rsi
    3c38:	89 df                	mov    %ebx,%edi
    3c3a:	e8 31 fb ff ff       	call   3770 <_Z30_random_stack_noinline_wrapperI9_status_tJjPvEJRiRS1_EET_PFS4_DpT0_EDpOT1_.constprop.0.isra.0>
    3c3f:	83 fb fa             	cmp    $0xfffffffa,%ebx
    3c42:	0f 84 56 ff ff ff    	je     3b9e <do_ecall+0x14e>
    3c48:	83 f8 09             	cmp    $0x9,%eax
    3c4b:	0f 85 5f ff ff ff    	jne    3bb0 <do_ecall+0x160>
    3c51:	e9 43 ff ff ff       	jmp    3b99 <do_ecall+0x149>
    3c56:	66 2e 0f 1f 84 00 00 	cs nopw 0x0(%rax,%rax,1)
    3c5d:	00 00 00 
    3c60:	0f c7 f0             	rdrand %eax
    3c63:	73 fb                	jae    3c60 <do_ecall+0x210>
    3c65:	48 8b 74 24 08       	mov    0x8(%rsp),%rsi
    3c6a:	8b 7c 24 20          	mov    0x20(%rsp),%edi
    3c6e:	e8 fd fa ff ff       	call   3770 <_Z30_random_stack_noinline_wrapperI9_status_tJjPvEJRiRS1_EET_PFS4_DpT0_EDpOT1_.constprop.0.isra.0>
    3c73:	48 8b 4c 24 18       	mov    0x18(%rsp),%rcx
    3c78:	48 89 4c 24 10       	mov    %rcx,0x10(%rsp)
    3c7d:	e9 80 fe ff ff       	jmp    3b02 <do_ecall+0xb2>
    3c82:	66 0f 1f 44 00 00    	nopw   0x0(%rax,%rax,1)
    3c88:	e8 13 fb ff ff       	call   37a0 <_Z22_pthread_tls_get_statev>
    3c8d:	83 7c 24 20 fa       	cmpl   $0xfffffffa,0x20(%rsp)
    3c92:	0f 84 4c ff ff ff    	je     3be4 <do_ecall+0x194>
    3c98:	83 f8 09             	cmp    $0x9,%eax
    3c9b:	0f 85 25 fe ff ff    	jne    3ac6 <do_ecall+0x76>
    3ca1:	e9 3e ff ff ff       	jmp    3be4 <do_ecall+0x194>
    3ca6:	e8 75 78 00 00       	call   b520 <__stack_chk_fail>
    3cab:	0f 1f 44 00 00       	nopl   0x0(%rax,%rax,1)

0000000000003cb0 <do_ecall_add_thread>:
    3cb0:	f3 0f 1e fa          	endbr64
    3cb4:	55                   	push   %rbp
    3cb5:	53                   	push   %rbx
    3cb6:	48 89 fb             	mov    %rdi,%rbx
    3cb9:	48 83 ec 08          	sub    $0x8,%rsp
    3cbd:	e8 9e 05 00 00       	call   4260 <is_utility_thread>
    3cc2:	48 85 db             	test   %rbx,%rbx
    3cc5:	0f 84 a5 00 00 00    	je     3d70 <do_ecall_add_thread+0xc0>
    3ccb:	3c 01                	cmp    $0x1,%al
    3ccd:	0f 85 9d 00 00 00    	jne    3d70 <do_ecall_add_thread+0xc0>
    3cd3:	be 08 00 00 00       	mov    $0x8,%esi
    3cd8:	48 89 df             	mov    %rbx,%rdi
    3cdb:	e8 c0 ed ff ff       	call   2aa0 <sgx_is_outside_enclave>
    3ce0:	85 c0                	test   %eax,%eax
    3ce2:	0f 84 88 00 00 00    	je     3d70 <do_ecall_add_thread+0xc0>
    3ce8:	0f ae e8             	lfence
    3ceb:	48 8b 2b             	mov    (%rbx),%rbp
    3cee:	48 85 ed             	test   %rbp,%rbp
    3cf1:	74 7d                	je     3d70 <do_ecall_add_thread+0xc0>
    3cf3:	0f ae e8             	lfence
    3cf6:	48 89 ef             	mov    %rbp,%rdi
    3cf9:	e8 02 f7 ff ff       	call   3400 <_ZL11do_save_tcsPv>
    3cfe:	89 c3                	mov    %eax,%ebx
    3d00:	85 c0                	test   %eax,%eax
    3d02:	75 71                	jne    3d75 <do_ecall_add_thread+0xc5>
    3d04:	48 89 ef             	mov    %rbp,%rdi
    3d07:	e8 84 f4 ff ff       	call   3190 <do_add_thread>
    3d0c:	89 c3                	mov    %eax,%ebx
    3d0e:	85 c0                	test   %eax,%eax
    3d10:	74 63                	je     3d75 <do_ecall_add_thread+0xc5>
    3d12:	e8 49 05 00 00       	call   4260 <is_utility_thread>
    3d17:	84 c0                	test   %al,%al
    3d19:	74 5a                	je     3d75 <do_ecall_add_thread+0xc5>
    3d1b:	48 8b 0d 4e fb 00 00 	mov    0xfb4e(%rip),%rcx        # 13870 <_ZL10g_tcs_node>
    3d22:	48 85 c9             	test   %rcx,%rcx
    3d25:	74 4e                	je     3d75 <do_ecall_add_thread+0xc5>
    3d27:	48 8b 35 3a fb 00 00 	mov    0xfb3a(%rip),%rsi        # 13868 <_ZL12g_tcs_cookie>
    3d2e:	48 8b 01             	mov    (%rcx),%rax
    3d31:	48 8b 79 08          	mov    0x8(%rcx),%rdi
    3d35:	48 31 f0             	xor    %rsi,%rax
    3d38:	48 39 c5             	cmp    %rax,%rbp
    3d3b:	74 41                	je     3d7e <do_ecall_add_thread+0xce>
    3d3d:	48 85 ff             	test   %rdi,%rdi
    3d40:	75 11                	jne    3d53 <do_ecall_add_thread+0xa3>
    3d42:	eb 31                	jmp    3d75 <do_ecall_add_thread+0xc5>
    3d44:	0f 1f 40 00          	nopl   0x0(%rax)
    3d48:	48 89 f9             	mov    %rdi,%rcx
    3d4b:	48 85 c0             	test   %rax,%rax
    3d4e:	74 25                	je     3d75 <do_ecall_add_thread+0xc5>
    3d50:	48 89 c7             	mov    %rax,%rdi
    3d53:	48 8b 17             	mov    (%rdi),%rdx
    3d56:	48 8b 47 08          	mov    0x8(%rdi),%rax
    3d5a:	48 31 f2             	xor    %rsi,%rdx
    3d5d:	48 39 d5             	cmp    %rdx,%rbp
    3d60:	75 e6                	jne    3d48 <do_ecall_add_thread+0x98>
    3d62:	48 89 41 08          	mov    %rax,0x8(%rcx)
    3d66:	e8 75 67 00 00       	call   a4e0 <dlfree>
    3d6b:	eb 08                	jmp    3d75 <do_ecall_add_thread+0xc5>
    3d6d:	0f 1f 00             	nopl   (%rax)
    3d70:	bb 01 00 00 00       	mov    $0x1,%ebx
    3d75:	48 83 c4 08          	add    $0x8,%rsp
    3d79:	89 d8                	mov    %ebx,%eax
    3d7b:	5b                   	pop    %rbx
    3d7c:	5d                   	pop    %rbp
    3d7d:	c3                   	ret
    3d7e:	48 89 3d eb fa 00 00 	mov    %rdi,0xfaeb(%rip)        # 13870 <_ZL10g_tcs_node>
    3d85:	48 89 cf             	mov    %rcx,%rdi
    3d88:	e8 53 67 00 00       	call   a4e0 <dlfree>
    3d8d:	eb e6                	jmp    3d75 <do_ecall_add_thread+0xc5>
    3d8f:	90                   	nop

0000000000003d90 <do_uninit_enclave>:
    3d90:	f3 0f 1e fa          	endbr64
    3d94:	48 8d 05 61 d0 00 00 	lea    0xd061(%rip),%rax        # 10dfc <EDMM_supported>
    3d9b:	41 54                	push   %r12
    3d9d:	55                   	push   %rbp
    3d9e:	53                   	push   %rbx
    3d9f:	8b 00                	mov    (%rax),%eax
    3da1:	85 c0                	test   %eax,%eax
    3da3:	0f 84 a4 00 00 00    	je     3e4d <do_uninit_enclave+0xbd>
    3da9:	49 89 fc             	mov    %rdi,%r12
    3dac:	e8 af 04 00 00       	call   4260 <is_utility_thread>
    3db1:	84 c0                	test   %al,%al
    3db3:	0f 84 87 00 00 00    	je     3e40 <do_uninit_enclave+0xb0>
    3db9:	f0 83 0d 9f fa 00 00 	lock orl $0x1,0xfa9f(%rip)        # 13860 <g_uninit_flag>
    3dc0:	01 
    3dc1:	48 8b 1d a8 fa 00 00 	mov    0xfaa8(%rip),%rbx        # 13870 <_ZL10g_tcs_node>
    3dc8:	48 c7 05 9d fa 00 00 	movq   $0x0,0xfa9d(%rip)        # 13870 <_ZL10g_tcs_node>
    3dcf:	00 00 00 00 
    3dd3:	eb 2f                	jmp    3e04 <do_uninit_enclave+0x74>
    3dd5:	0f 1f 00             	nopl   (%rax)
    3dd8:	48 8b 3b             	mov    (%rbx),%rdi
    3ddb:	48 33 3d 86 fa 00 00 	xor    0xfa86(%rip),%rdi        # 13868 <_ZL12g_tcs_cookie>
    3de2:	4c 39 e7             	cmp    %r12,%rdi
    3de5:	74 0e                	je     3df5 <do_uninit_enclave+0x65>
    3de7:	be 00 10 00 00       	mov    $0x1000,%esi
    3dec:	e8 bf 3e 00 00       	call   7cb0 <mm_dealloc>
    3df1:	85 c0                	test   %eax,%eax
    3df3:	75 58                	jne    3e4d <do_uninit_enclave+0xbd>
    3df5:	48 8b 6b 08          	mov    0x8(%rbx),%rbp
    3df9:	48 89 df             	mov    %rbx,%rdi
    3dfc:	e8 df 66 00 00       	call   a4e0 <dlfree>
    3e01:	48 89 eb             	mov    %rbp,%rbx
    3e04:	48 85 db             	test   %rbx,%rbx
    3e07:	75 cf                	jne    3dd8 <do_uninit_enclave+0x48>
    3e09:	48 8d 1d 54 fa 00 00 	lea    0xfa54(%rip),%rbx        # 13864 <_ZL10g_ife_lock>
    3e10:	48 89 df             	mov    %rbx,%rdi
    3e13:	e8 e8 49 00 00       	call   8800 <sgx_spin_lock>
    3e18:	0f b6 05 01 d4 00 00 	movzbl 0xd401(%rip),%eax        # 11220 <_ZL16g_is_first_ecall>
    3e1f:	84 c0                	test   %al,%al
    3e21:	74 45                	je     3e68 <do_uninit_enclave+0xd8>
    3e23:	48 89 df             	mov    %rbx,%rdi
    3e26:	e8 65 4a 00 00       	call   8890 <sgx_spin_unlock>
    3e2b:	bf 03 00 00 00       	mov    $0x3,%edi
    3e30:	e8 e9 8c 00 00       	call   cb1e <set_enclave_state>
    3e35:	5b                   	pop    %rbx
    3e36:	31 c0                	xor    %eax,%eax
    3e38:	5d                   	pop    %rbp
    3e39:	41 5c                	pop    %r12
    3e3b:	c3                   	ret
    3e3c:	0f 1f 40 00          	nopl   0x0(%rax)
    3e40:	e8 7b f2 ff ff       	call   30c0 <is_dynamic_thread_exist>
    3e45:	85 c0                	test   %eax,%eax
    3e47:	0f 84 6c ff ff ff    	je     3db9 <do_uninit_enclave+0x29>
    3e4d:	bf 03 00 00 00       	mov    $0x3,%edi
    3e52:	e8 c7 8c 00 00       	call   cb1e <set_enclave_state>
    3e57:	5b                   	pop    %rbx
    3e58:	b8 01 00 00 00       	mov    $0x1,%eax
    3e5d:	5d                   	pop    %rbp
    3e5e:	41 5c                	pop    %r12
    3e60:	c3                   	ret
    3e61:	0f 1f 80 00 00 00 00 	nopl   0x0(%rax)
    3e68:	e8 e3 18 00 00       	call   5750 <uninit_global_object>
    3e6d:	eb b4                	jmp    3e23 <do_uninit_enclave+0x93>
    3e6f:	90                   	nop

0000000000003e70 <sgx_ocall>:
    3e70:	f3 0f 1e fa          	endbr64
    3e74:	8d 47 07             	lea    0x7(%rdi),%eax
    3e77:	83 f8 05             	cmp    $0x5,%eax
    3e7a:	76 12                	jbe    3e8e <sgx_ocall+0x1e>
    3e7c:	85 ff                	test   %edi,%edi
    3e7e:	74 0e                	je     3e8e <sgx_ocall+0x1e>
    3e80:	48 8d 15 79 91 00 00 	lea    0x9179(%rip),%rdx        # d000 <g_dyn_entry_table>
    3e87:	89 f8                	mov    %edi,%eax
    3e89:	48 3b 02             	cmp    (%rdx),%rax
    3e8c:	73 0a                	jae    3e98 <sgx_ocall+0x28>
    3e8e:	e9 55 8f 00 00       	jmp    cde8 <__morestack>
    3e93:	0f 1f 44 00 00       	nopl   0x0(%rax,%rax,1)
    3e98:	b8 01 10 00 00       	mov    $0x1001,%eax
    3e9d:	c3                   	ret
    3e9e:	66 90                	xchg   %ax,%ax

0000000000003ea0 <update_ocall_lastsp>:
    3ea0:	f3 0f 1e fa          	endbr64
    3ea4:	53                   	push   %rbx
    3ea5:	48 89 fb             	mov    %rdi,%rbx
    3ea8:	e8 9f 8c 00 00       	call   cb4c <get_thread_data>
    3ead:	b9 01 00 00 00       	mov    $0x1,%ecx
    3eb2:	48 8b 50 08          	mov    0x8(%rax),%rdx
    3eb6:	48 89 53 30          	mov    %rdx,0x30(%rbx)
    3eba:	48 39 50 10          	cmp    %rdx,0x10(%rax)
    3ebe:	74 0b                	je     3ecb <update_ocall_lastsp+0x2b>
    3ec0:	48 8b b2 90 00 00 00 	mov    0x90(%rdx),%rsi
    3ec7:	48 8d 4e 01          	lea    0x1(%rsi),%rcx
    3ecb:	48 89 8b 90 00 00 00 	mov    %rcx,0x90(%rbx)
    3ed2:	48 89 58 08          	mov    %rbx,0x8(%rax)
    3ed6:	48 89 d0             	mov    %rdx,%rax
    3ed9:	5b                   	pop    %rbx
    3eda:	c3                   	ret
    3edb:	0f 1f 44 00 00       	nopl   0x0(%rax,%rax,1)

0000000000003ee0 <do_oret>:
    3ee0:	f3 0f 1e fa          	endbr64
    3ee4:	55                   	push   %rbp
    3ee5:	48 89 fd             	mov    %rdi,%rbp
    3ee8:	53                   	push   %rbx
    3ee9:	48 83 ec 18          	sub    $0x18,%rsp
    3eed:	64 48 8b 04 25 28 00 	mov    %fs:0x28,%rax
    3ef4:	00 00 
    3ef6:	48 89 44 24 08       	mov    %rax,0x8(%rsp)
    3efb:	31 c0                	xor    %eax,%eax
    3efd:	e8 4a 8c 00 00       	call   cb4c <get_thread_data>
    3f02:	48 83 78 50 01       	cmpq   $0x1,0x50(%rax)
    3f07:	48 89 c3             	mov    %rax,%rbx
    3f0a:	74 74                	je     3f80 <do_oret+0xa0>
    3f0c:	48 8b 7b 08          	mov    0x8(%rbx),%rdi
    3f10:	48 89 e0             	mov    %rsp,%rax
    3f13:	48 89 3c 24          	mov    %rdi,(%rsp)
    3f17:	48 39 f8             	cmp    %rdi,%rax
    3f1a:	72 24                	jb     3f40 <do_oret+0x60>
    3f1c:	48 8b 44 24 08       	mov    0x8(%rsp),%rax
    3f21:	64 48 2b 04 25 28 00 	sub    %fs:0x28,%rax
    3f28:	00 00 
    3f2a:	75 6b                	jne    3f97 <do_oret+0xb7>
    3f2c:	48 83 c4 18          	add    $0x18,%rsp
    3f30:	b8 01 00 00 00       	mov    $0x1,%eax
    3f35:	5b                   	pop    %rbx
    3f36:	5d                   	pop    %rbp
    3f37:	c3                   	ret
    3f38:	0f 1f 84 00 00 00 00 	nopl   0x0(%rax,%rax,1)
    3f3f:	00 
    3f40:	48 8b 43 10          	mov    0x10(%rbx),%rax
    3f44:	48 8d 90 10 ff ff ff 	lea    -0xf0(%rax),%rdx
    3f4b:	48 39 fa             	cmp    %rdi,%rdx
    3f4e:	72 cc                	jb     3f1c <do_oret+0x3c>
    3f50:	48 81 7f 20 44 49 43 	cmpq   $0x4f434944,0x20(%rdi)
    3f57:	4f 
    3f58:	75 c2                	jne    3f1c <do_oret+0x3c>
    3f5a:	48 8b 57 30          	mov    0x30(%rdi),%rdx
    3f5e:	48 39 d7             	cmp    %rdx,%rdi
    3f61:	73 b9                	jae    3f1c <do_oret+0x3c>
    3f63:	48 39 d0             	cmp    %rdx,%rax
    3f66:	72 b4                	jb     3f1c <do_oret+0x3c>
    3f68:	48 89 53 08          	mov    %rdx,0x8(%rbx)
    3f6c:	48 89 ee             	mov    %rbp,%rsi
    3f6f:	e8 87 8e 00 00       	call   cdfb <asm_oret>
    3f74:	eb a6                	jmp    3f1c <do_oret+0x3c>
    3f76:	66 2e 0f 1f 84 00 00 	cs nopw 0x0(%rax,%rax,1)
    3f7d:	00 00 00 
    3f80:	48 c7 40 50 00 00 00 	movq   $0x0,0x50(%rax)
    3f87:	00 
    3f88:	bf 01 00 00 00       	mov    $0x1,%edi
    3f8d:	e8 be f3 ff ff       	call   3350 <sgx_set_ssa_aexnotify>
    3f92:	e9 75 ff ff ff       	jmp    3f0c <do_oret+0x2c>
    3f97:	e8 84 75 00 00       	call   b520 <__stack_chk_fail>
    3f9c:	0f 1f 40 00          	nopl   0x0(%rax)

0000000000003fa0 <get_heap_base>:
    3fa0:	f3 0f 1e fa          	endbr64
    3fa4:	48 83 ec 08          	sub    $0x8,%rsp
    3fa8:	e8 54 8b 00 00       	call   cb01 <get_enclave_base>
    3fad:	48 8d 15 ac f1 00 00 	lea    0xf1ac(%rip),%rdx        # 13160 <g_global_data>
    3fb4:	48 8b 52 10          	mov    0x10(%rdx),%rdx
    3fb8:	48 83 c4 08          	add    $0x8,%rsp
    3fbc:	48 01 d0             	add    %rdx,%rax
    3fbf:	c3                   	ret

0000000000003fc0 <get_heap_size>:
    3fc0:	f3 0f 1e fa          	endbr64
    3fc4:	48 8d 05 31 ce 00 00 	lea    0xce31(%rip),%rax        # 10dfc <EDMM_supported>
    3fcb:	48 8d 0d 8e f1 00 00 	lea    0xf18e(%rip),%rcx        # 13160 <g_global_data>
    3fd2:	8b 00                	mov    (%rax),%eax
    3fd4:	48 8b 79 18          	mov    0x18(%rcx),%rdi
    3fd8:	85 c0                	test   %eax,%eax
    3fda:	74 41                	je     401d <get_heap_size+0x5d>
    3fdc:	8b 81 58 01 00 00    	mov    0x158(%rcx),%eax
    3fe2:	85 c0                	test   %eax,%eax
    3fe4:	74 37                	je     401d <get_heap_size+0x5d>
    3fe6:	31 d2                	xor    %edx,%edx
    3fe8:	0f 1f 84 00 00 00 00 	nopl   0x0(%rax,%rax,1)
    3fef:	00 
    3ff0:	89 d0                	mov    %edx,%eax
    3ff2:	48 83 c0 0b          	add    $0xb,%rax
    3ff6:	48 c1 e0 05          	shl    $0x5,%rax
    3ffa:	48 01 c8             	add    %rcx,%rax
    3ffd:	0f b7 30             	movzwl (%rax),%esi
    4000:	66 83 fe 03          	cmp    $0x3,%si
    4004:	75 0a                	jne    4010 <get_heap_size+0x50>
    4006:	8b 40 04             	mov    0x4(%rax),%eax
    4009:	48 c1 e0 0c          	shl    $0xc,%rax
    400d:	48 01 c7             	add    %rax,%rdi
    4010:	8b 81 58 01 00 00    	mov    0x158(%rcx),%eax
    4016:	83 c2 01             	add    $0x1,%edx
    4019:	39 c2                	cmp    %eax,%edx
    401b:	72 d3                	jb     3ff0 <get_heap_size+0x30>
    401d:	48 89 f8             	mov    %rdi,%rax
    4020:	c3                   	ret
    4021:	66 2e 0f 1f 84 00 00 	cs nopw 0x0(%rax,%rax,1)
    4028:	00 00 00 
    402b:	0f 1f 44 00 00       	nopl   0x0(%rax,%rax,1)

0000000000004030 <get_heap_min_size>:
    4030:	f3 0f 1e fa          	endbr64
    4034:	48 8d 0d 25 f1 00 00 	lea    0xf125(%rip),%rcx        # 13160 <g_global_data>
    403b:	8b 81 58 01 00 00    	mov    0x158(%rcx),%eax
    4041:	85 c0                	test   %eax,%eax
    4043:	74 3b                	je     4080 <get_heap_min_size+0x50>
    4045:	31 d2                	xor    %edx,%edx
    4047:	eb 14                	jmp    405d <get_heap_min_size+0x2d>
    4049:	0f 1f 80 00 00 00 00 	nopl   0x0(%rax)
    4050:	8b 81 58 01 00 00    	mov    0x158(%rcx),%eax
    4056:	83 c2 01             	add    $0x1,%edx
    4059:	39 c2                	cmp    %eax,%edx
    405b:	73 23                	jae    4080 <get_heap_min_size+0x50>
    405d:	89 d0                	mov    %edx,%eax
    405f:	48 83 c0 0b          	add    $0xb,%rax
    4063:	48 c1 e0 05          	shl    $0x5,%rax
    4067:	48 01 c8             	add    %rcx,%rax
    406a:	0f b7 30             	movzwl (%rax),%esi
    406d:	66 83 fe 01          	cmp    $0x1,%si
    4071:	75 dd                	jne    4050 <get_heap_min_size+0x20>
    4073:	8b 40 04             	mov    0x4(%rax),%eax
    4076:	48 c1 e0 0c          	shl    $0xc,%rax
    407a:	c3                   	ret
    407b:	0f 1f 44 00 00       	nopl   0x0(%rax,%rax,1)
    4080:	31 c0                	xor    %eax,%eax
    4082:	c3                   	ret
    4083:	66 2e 0f 1f 84 00 00 	cs nopw 0x0(%rax,%rax,1)
    408a:	00 00 00 
    408d:	0f 1f 00             	nopl   (%rax)

0000000000004090 <get_rsrv_base>:
    4090:	f3 0f 1e fa          	endbr64
    4094:	48 83 ec 08          	sub    $0x8,%rsp
    4098:	e8 64 8a 00 00       	call   cb01 <get_enclave_base>
    409d:	48 8d 15 bc f0 00 00 	lea    0xf0bc(%rip),%rdx        # 13160 <g_global_data>
    40a4:	48 8b 52 20          	mov    0x20(%rdx),%rdx
    40a8:	48 83 c4 08          	add    $0x8,%rsp
    40ac:	48 01 d0             	add    %rdx,%rax
    40af:	c3                   	ret

00000000000040b0 <get_rsrv_size>:
    40b0:	f3 0f 1e fa          	endbr64
    40b4:	48 8d 05 41 cd 00 00 	lea    0xcd41(%rip),%rax        # 10dfc <EDMM_supported>
    40bb:	48 8d 0d 9e f0 00 00 	lea    0xf09e(%rip),%rcx        # 13160 <g_global_data>
    40c2:	8b 00                	mov    (%rax),%eax
    40c4:	48 8b 79 28          	mov    0x28(%rcx),%rdi
    40c8:	85 c0                	test   %eax,%eax
    40ca:	74 41                	je     410d <get_rsrv_size+0x5d>
    40cc:	8b 81 58 01 00 00    	mov    0x158(%rcx),%eax
    40d2:	85 c0                	test   %eax,%eax
    40d4:	74 37                	je     410d <get_rsrv_size+0x5d>
    40d6:	31 d2                	xor    %edx,%edx
    40d8:	0f 1f 84 00 00 00 00 	nopl   0x0(%rax,%rax,1)
    40df:	00 
    40e0:	89 d0                	mov    %edx,%eax
    40e2:	48 83 c0 0b          	add    $0xb,%rax
    40e6:	48 c1 e0 05          	shl    $0x5,%rax
    40ea:	48 01 c8             	add    %rcx,%rax
    40ed:	0f b7 30             	movzwl (%rax),%esi
    40f0:	66 83 fe 16          	cmp    $0x16,%si
    40f4:	75 0a                	jne    4100 <get_rsrv_size+0x50>
    40f6:	8b 40 04             	mov    0x4(%rax),%eax
    40f9:	48 c1 e0 0c          	shl    $0xc,%rax
    40fd:	48 01 c7             	add    %rax,%rdi
    4100:	8b 81 58 01 00 00    	mov    0x158(%rcx),%eax
    4106:	83 c2 01             	add    $0x1,%edx
    4109:	39 c2                	cmp    %eax,%edx
    410b:	72 d3                	jb     40e0 <get_rsrv_size+0x30>
    410d:	48 89 f8             	mov    %rdi,%rax
    4110:	c3                   	ret
    4111:	66 2e 0f 1f 84 00 00 	cs nopw 0x0(%rax,%rax,1)
    4118:	00 00 00 
    411b:	0f 1f 44 00 00       	nopl   0x0(%rax,%rax,1)

0000000000004120 <get_rsrv_min_size>:
    4120:	f3 0f 1e fa          	endbr64
    4124:	48 8d 0d 35 f0 00 00 	lea    0xf035(%rip),%rcx        # 13160 <g_global_data>
    412b:	8b 81 58 01 00 00    	mov    0x158(%rcx),%eax
    4131:	85 c0                	test   %eax,%eax
    4133:	74 3b                	je     4170 <get_rsrv_min_size+0x50>
    4135:	31 d2                	xor    %edx,%edx
    4137:	eb 14                	jmp    414d <get_rsrv_min_size+0x2d>
    4139:	0f 1f 80 00 00 00 00 	nopl   0x0(%rax)
    4140:	8b 81 58 01 00 00    	mov    0x158(%rcx),%eax
    4146:	83 c2 01             	add    $0x1,%edx
    4149:	39 c2                	cmp    %eax,%edx
    414b:	73 23                	jae    4170 <get_rsrv_min_size+0x50>
    414d:	89 d0                	mov    %edx,%eax
    414f:	48 83 c0 0b          	add    $0xb,%rax
    4153:	48 c1 e0 05          	shl    $0x5,%rax
    4157:	48 01 c8             	add    %rcx,%rax
    415a:	0f b7 30             	movzwl (%rax),%esi
    415d:	66 83 fe 14          	cmp    $0x14,%si
    4161:	75 dd                	jne    4140 <get_rsrv_min_size+0x20>
    4163:	8b 40 04             	mov    0x4(%rax),%eax
    4166:	48 c1 e0 0c          	shl    $0xc,%rax
    416a:	c3                   	ret
    416b:	0f 1f 44 00 00       	nopl   0x0(%rax,%rax,1)
    4170:	31 c0                	xor    %eax,%eax
    4172:	c3                   	ret
    4173:	66 2e 0f 1f 84 00 00 	cs nopw 0x0(%rax,%rax,1)
    417a:	00 00 00 
    417d:	0f 1f 00             	nopl   (%rax)

0000000000004180 <get_errno_addr>:
    4180:	f3 0f 1e fa          	endbr64
    4184:	48 83 ec 08          	sub    $0x8,%rsp
    4188:	e8 bf 89 00 00       	call   cb4c <get_thread_data>
    418d:	48 83 c4 08          	add    $0x8,%rsp
    4191:	48 83 c0 40          	add    $0x40,%rax
    4195:	c3                   	ret
    4196:	66 2e 0f 1f 84 00 00 	cs nopw 0x0(%rax,%rax,1)
    419d:	00 00 00 

00000000000041a0 <feature_supported>:
    41a0:	f3 0f 1e fa          	endbr64
    41a4:	48 85 ff             	test   %rdi,%rdi
    41a7:	74 37                	je     41e0 <feature_supported+0x40>
    41a9:	31 d2                	xor    %edx,%edx
    41ab:	eb 08                	jmp    41b5 <feature_supported+0x15>
    41ad:	0f 1f 00             	nopl   (%rax)
    41b0:	48 85 c0             	test   %rax,%rax
    41b3:	78 2b                	js     41e0 <feature_supported+0x40>
    41b5:	89 d0                	mov    %edx,%eax
    41b7:	83 c2 01             	add    $0x1,%edx
    41ba:	41 89 d1             	mov    %edx,%r9d
    41bd:	49 89 c0             	mov    %rax,%r8
    41c0:	48 8b 04 c7          	mov    (%rdi,%rax,8),%rax
    41c4:	41 c1 e1 06          	shl    $0x6,%r9d
    41c8:	44 39 ce             	cmp    %r9d,%esi
    41cb:	73 e3                	jae    41b0 <feature_supported+0x10>
    41cd:	41 c1 e0 06          	shl    $0x6,%r8d
    41d1:	44 29 c6             	sub    %r8d,%esi
    41d4:	89 f1                	mov    %esi,%ecx
    41d6:	48 d3 e8             	shr    %cl,%rax
    41d9:	83 e0 01             	and    $0x1,%eax
    41dc:	c3                   	ret
    41dd:	0f 1f 00             	nopl   (%rax)
    41e0:	31 c0                	xor    %eax,%eax
    41e2:	c3                   	ret
    41e3:	66 2e 0f 1f 84 00 00 	cs nopw 0x0(%rax,%rax,1)
    41ea:	00 00 00 
    41ed:	0f 1f 00             	nopl   (%rax)

00000000000041f0 <is_stack_addr>:
    41f0:	f3 0f 1e fa          	endbr64
    41f4:	55                   	push   %rbp
    41f5:	48 89 f5             	mov    %rsi,%rbp
    41f8:	53                   	push   %rbx
    41f9:	48 89 fb             	mov    %rdi,%rbx
    41fc:	48 83 ec 08          	sub    $0x8,%rsp
    4200:	e8 47 89 00 00       	call   cb4c <get_thread_data>
    4205:	31 c9                	xor    %ecx,%ecx
    4207:	48 01 dd             	add    %rbx,%rbp
    420a:	48 89 c2             	mov    %rax,%rdx
    420d:	0f 92 c1             	setb   %cl
    4210:	48 39 68 10          	cmp    %rbp,0x10(%rax)
    4214:	0f 93 c0             	setae  %al
    4217:	48 3b 5a 18          	cmp    0x18(%rdx),%rbx
    421b:	0f 93 c2             	setae  %dl
    421e:	21 d0                	and    %edx,%eax
    4220:	48 85 c9             	test   %rcx,%rcx
    4223:	0f 94 c2             	sete   %dl
    4226:	48 83 c4 08          	add    $0x8,%rsp
    422a:	21 d0                	and    %edx,%eax
    422c:	5b                   	pop    %rbx
    422d:	5d                   	pop    %rbp
    422e:	c3                   	ret
    422f:	90                   	nop

0000000000004230 <is_valid_sp>:
    4230:	f3 0f 1e fa          	endbr64
    4234:	40 f6 c7 07          	test   $0x7,%dil
    4238:	74 06                	je     4240 <is_valid_sp+0x10>
    423a:	31 c0                	xor    %eax,%eax
    423c:	c3                   	ret
    423d:	0f 1f 00             	nopl   (%rax)
    4240:	53                   	push   %rbx
    4241:	48 89 fb             	mov    %rdi,%rbx
    4244:	e8 03 89 00 00       	call   cb4c <get_thread_data>
    4249:	48 89 c2             	mov    %rax,%rdx
    424c:	48 3b 58 18          	cmp    0x18(%rax),%rbx
    4250:	0f 93 c0             	setae  %al
    4253:	48 39 5a 10          	cmp    %rbx,0x10(%rdx)
    4257:	5b                   	pop    %rbx
    4258:	0f 93 c2             	setae  %dl
    425b:	21 d0                	and    %edx,%eax
    425d:	c3                   	ret
    425e:	66 90                	xchg   %ax,%ax

0000000000004260 <is_utility_thread>:
    4260:	f3 0f 1e fa          	endbr64
    4264:	48 83 ec 08          	sub    $0x8,%rsp
    4268:	e8 df 88 00 00       	call   cb4c <get_thread_data>
    426d:	31 d2                	xor    %edx,%edx
    426f:	48 85 c0             	test   %rax,%rax
    4272:	74 07                	je     427b <is_utility_thread+0x1b>
    4274:	48 8b 50 30          	mov    0x30(%rax),%rdx
    4278:	83 e2 01             	and    $0x1,%edx
    427b:	89 d0                	mov    %edx,%eax
    427d:	48 83 c4 08          	add    $0x8,%rsp
    4281:	c3                   	ret
    4282:	66 2e 0f 1f 84 00 00 	cs nopw 0x0(%rax,%rax,1)
    4289:	00 00 00 
    428c:	0f 1f 40 00          	nopl   0x0(%rax)

0000000000004290 <is_pkru_enabled>:
    4290:	f3 0f 1e fa          	endbr64
    4294:	48 83 ec 08          	sub    $0x8,%rsp
    4298:	e8 13 08 00 00       	call   4ab0 <get_xfeature_state>
    429d:	48 83 c4 08          	add    $0x8,%rsp
    42a1:	48 c1 e8 09          	shr    $0x9,%rax
    42a5:	83 e0 01             	and    $0x1,%eax
    42a8:	c3                   	ret
    42a9:	0f 1f 80 00 00 00 00 	nopl   0x0(%rax)

00000000000042b0 <get_xsave_size>:
    42b0:	f3 0f 1e fa          	endbr64
    42b4:	48 8d 05 a5 ee 00 00 	lea    0xeea5(%rip),%rax        # 13160 <g_global_data>
    42bb:	48 8b 80 88 00 00 00 	mov    0x88(%rax),%rax
    42c2:	c3                   	ret
    42c3:	66 2e 0f 1f 84 00 00 	cs nopw 0x0(%rax,%rax,1)
    42ca:	00 00 00 
    42cd:	0f 1f 00             	nopl   (%rax)

00000000000042d0 <get_ssa_aexnotify>:
    42d0:	f3 0f 1e fa          	endbr64
    42d4:	48 83 ec 08          	sub    $0x8,%rsp
    42d8:	e8 6f 88 00 00       	call   cb4c <get_thread_data>
    42dd:	48 85 c0             	test   %rax,%rax
    42e0:	74 16                	je     42f8 <get_ssa_aexnotify+0x28>
    42e2:	48 8b 40 20          	mov    0x20(%rax),%rax
    42e6:	0f b6 80 a7 00 00 00 	movzbl 0xa7(%rax),%eax
    42ed:	48 83 c4 08          	add    $0x8,%rsp
    42f1:	83 e0 01             	and    $0x1,%eax
    42f4:	c3                   	ret
    42f5:	0f 1f 00             	nopl   (%rax)
    42f8:	31 c0                	xor    %eax,%eax
    42fa:	48 83 c4 08          	add    $0x8,%rsp
    42fe:	c3                   	ret
    42ff:	90                   	nop

0000000000004300 <internal_handle_exception>:
    4300:	f3 0f 1e fa          	endbr64
    4304:	55                   	push   %rbp
    4305:	48 89 e5             	mov    %rsp,%rbp
    4308:	41 57                	push   %r15
    430a:	41 56                	push   %r14
    430c:	41 55                	push   %r13
    430e:	41 54                	push   %r12
    4310:	53                   	push   %rbx
    4311:	48 89 fb             	mov    %rdi,%rbx
    4314:	48 83 ec 38          	sub    $0x38,%rsp
    4318:	64 48 8b 04 25 28 00 	mov    %fs:0x28,%rax
    431f:	00 00 
    4321:	48 89 45 c8          	mov    %rax,-0x38(%rbp)
    4325:	31 c0                	xor    %eax,%eax
    4327:	e8 20 88 00 00       	call   cb4c <get_thread_data>
    432c:	4c 8b 60 20          	mov    0x20(%rax),%r12
    4330:	49 89 c5             	mov    %rax,%r13
    4333:	e8 78 ff ff ff       	call   42b0 <get_xsave_size>
    4338:	48 85 db             	test   %rbx,%rbx
    433b:	0f 84 4f 01 00 00    	je     4490 <internal_handle_exception+0x190>
    4341:	49 8d b4 24 ff 0f 00 	lea    0xfff(%r12),%rsi
    4348:	00 
    4349:	48 05 b7 10 00 00    	add    $0x10b7,%rax
    434f:	48 8b 93 b0 00 00 00 	mov    0xb0(%rbx),%rdx
    4356:	4c 8d b3 c0 00 00 00 	lea    0xc0(%rbx),%r14
    435d:	48 25 00 f0 ff ff    	and    $0xfffffffffffff000,%rax
    4363:	48 81 e6 00 f0 ff ff 	and    $0xfffffffffffff000,%rsi
    436a:	4c 89 f7             	mov    %r14,%rdi
    436d:	48 29 c6             	sub    %rax,%rsi
    4370:	e8 eb 6e 00 00       	call   b260 <memcpy>
    4375:	8b 83 a8 00 00 00    	mov    0xa8(%rbx),%eax
    437b:	85 c0                	test   %eax,%eax
    437d:	0f 84 2e 01 00 00    	je     44b1 <internal_handle_exception+0x1b1>
    4383:	49 8b 45 78          	mov    0x78(%r13),%rax
    4387:	48 85 c0             	test   %rax,%rax
    438a:	0f 88 00 01 00 00    	js     4490 <internal_handle_exception+0x190>
    4390:	48 8d 50 01          	lea    0x1(%rax),%rdx
    4394:	83 bb 90 00 00 00 0e 	cmpl   $0xe,0x90(%rbx)
    439b:	49 89 55 78          	mov    %rdx,0x78(%r13)
    439f:	75 27                	jne    43c8 <internal_handle_exception+0xc8>
    43a1:	48 8b 15 d0 f4 00 00 	mov    0xf4d0(%rip),%rdx        # 13878 <g_mm_pfhandler>
    43a8:	48 85 d2             	test   %rdx,%rdx
    43ab:	74 1b                	je     43c8 <internal_handle_exception+0xc8>
    43ad:	49 89 45 78          	mov    %rax,0x78(%r13)
    43b1:	48 8d bb 98 00 00 00 	lea    0x98(%rbx),%rdi
    43b8:	ff d2                	call   *%rdx
    43ba:	83 c0 01             	add    $0x1,%eax
    43bd:	0f 84 ee 00 00 00    	je     44b1 <internal_handle_exception+0x1b1>
    43c3:	49 83 45 78 01       	addq   $0x1,0x78(%r13)
    43c8:	48 8d 3d b9 f4 00 00 	lea    0xf4b9(%rip),%rdi        # 13888 <_ZL14g_handler_lock>
    43cf:	e8 2c 44 00 00       	call   8800 <sgx_spin_lock>
    43d4:	48 8b 05 b5 f4 00 00 	mov    0xf4b5(%rip),%rax        # 13890 <_ZL12g_first_node>
    43db:	48 85 c0             	test   %rax,%rax
    43de:	0f 84 b9 00 00 00    	je     449d <internal_handle_exception+0x19d>
    43e4:	45 31 ff             	xor    %r15d,%r15d
    43e7:	66 0f 1f 84 00 00 00 	nopw   0x0(%rax,%rax,1)
    43ee:	00 00 
    43f0:	48 8b 40 08          	mov    0x8(%rax),%rax
    43f4:	49 83 c7 08          	add    $0x8,%r15
    43f8:	48 85 c0             	test   %rax,%rax
    43fb:	75 f3                	jne    43f0 <internal_handle_exception+0xf0>
    43fd:	4d 85 ff             	test   %r15,%r15
    4400:	0f 84 97 00 00 00    	je     449d <internal_handle_exception+0x19d>
    4406:	4c 89 ff             	mov    %r15,%rdi
    4409:	e8 42 42 00 00       	call   8650 <alloca>
    440e:	49 89 c4             	mov    %rax,%r12
    4411:	48 85 c0             	test   %rax,%rax
    4414:	0f 84 b3 02 00 00    	je     46cd <internal_handle_exception+0x3cd>
    441a:	48 8b 05 6f f4 00 00 	mov    0xf46f(%rip),%rax        # 13890 <_ZL12g_first_node>
    4421:	4c 89 e1             	mov    %r12,%rcx
    4424:	48 85 c0             	test   %rax,%rax
    4427:	74 1b                	je     4444 <internal_handle_exception+0x144>
    4429:	0f 1f 80 00 00 00 00 	nopl   0x0(%rax)
    4430:	48 8b 30             	mov    (%rax),%rsi
    4433:	48 8b 40 08          	mov    0x8(%rax),%rax
    4437:	48 83 c1 08          	add    $0x8,%rcx
    443b:	48 89 71 f8          	mov    %rsi,-0x8(%rcx)
    443f:	48 85 c0             	test   %rax,%rax
    4442:	75 ec                	jne    4430 <internal_handle_exception+0x130>
    4444:	48 8d 3d 3d f4 00 00 	lea    0xf43d(%rip),%rdi        # 13888 <_ZL14g_handler_lock>
    444b:	4d 01 e7             	add    %r12,%r15
    444e:	e8 3d 44 00 00       	call   8890 <sgx_spin_unlock>
    4453:	49 83 6d 78 01       	subq   $0x1,0x78(%r13)
    4458:	eb 13                	jmp    446d <internal_handle_exception+0x16d>
    445a:	66 0f 1f 44 00 00    	nopw   0x0(%rax,%rax,1)
    4460:	49 83 c4 08          	add    $0x8,%r12
    4464:	4d 39 fc             	cmp    %r15,%r12
    4467:	0f 84 f2 01 00 00    	je     465f <internal_handle_exception+0x35f>
    446d:	49 8b 04 24          	mov    (%r12),%rax
    4471:	48 89 df             	mov    %rbx,%rdi
    4474:	48 33 05 05 f4 00 00 	xor    0xf405(%rip),%rax        # 13880 <_ZL12g_veh_cookie>
    447b:	ff d0                	call   *%rax
    447d:	83 f8 ff             	cmp    $0xffffffff,%eax
    4480:	75 de                	jne    4460 <internal_handle_exception+0x160>
    4482:	48 8b 7b 20          	mov    0x20(%rbx),%rdi
    4486:	e8 a5 fd ff ff       	call   4230 <is_valid_sp>
    448b:	84 c0                	test   %al,%al
    448d:	75 22                	jne    44b1 <internal_handle_exception+0x1b1>
    448f:	90                   	nop
    4490:	49 c7 45 78 ff ff ff 	movq   $0xffffffffffffffff,0x78(%r13)
    4497:	ff 
    4498:	e8 a3 8a 00 00       	call   cf40 <abort>
    449d:	48 8d 3d e4 f3 00 00 	lea    0xf3e4(%rip),%rdi        # 13888 <_ZL14g_handler_lock>
    44a4:	e8 e7 43 00 00       	call   8890 <sgx_spin_unlock>
    44a9:	49 c7 45 78 ff ff ff 	movq   $0xffffffffffffffff,0x78(%r13)
    44b0:	ff 
    44b1:	83 bb ac 00 00 00 01 	cmpl   $0x1,0xac(%rbx)
    44b8:	74 12                	je     44cc <internal_handle_exception+0x1cc>
    44ba:	4c 89 f7             	mov    %r14,%rdi
    44bd:	e8 2f 82 00 00       	call   c6f1 <restore_xregs>
    44c2:	48 89 df             	mov    %rbx,%rdi
    44c5:	e8 89 8a 00 00       	call   cf53 <continue_execution>
    44ca:	eb c4                	jmp    4490 <internal_handle_exception+0x190>
    44cc:	48 89 df             	mov    %rbx,%rdi
    44cf:	e8 dc ee ff ff       	call   33b0 <sgx_apply_mitigations>
    44d4:	4c 89 f7             	mov    %r14,%rdi
    44d7:	e8 15 82 00 00       	call   c6f1 <restore_xregs>
    44dc:	e8 6b 86 00 00       	call   cb4c <get_thread_data>
    44e1:	49 89 c7             	mov    %rax,%r15
    44e4:	48 8b 40 10          	mov    0x10(%rax),%rax
    44e8:	49 89 c6             	mov    %rax,%r14
    44eb:	49 81 e6 00 f0 ff ff 	and    $0xfffffffffffff000,%r14
    44f2:	48 3d ff 0f 00 00    	cmp    $0xfff,%rax
    44f8:	77 07                	ja     4501 <internal_handle_exception+0x201>
    44fa:	4c 8d b0 00 f0 ff ff 	lea    -0x1000(%rax),%r14
    4501:	48 89 df             	mov    %rbx,%rdi
    4504:	4d 8b 67 18          	mov    0x18(%r15),%r12
    4508:	e8 f3 82 00 00       	call   c800 <cselect_mitigation_rip>
    450d:	48 89 c6             	mov    %rax,%rsi
    4510:	48 89 d8             	mov    %rbx,%rax
    4513:	48 25 00 f0 ff ff    	and    $0xfffffffffffff000,%rax
    4519:	4c 39 f0             	cmp    %r14,%rax
    451c:	0f 84 8b 01 00 00    	je     46ad <internal_handle_exception+0x3ad>
    4522:	48 83 c8 01          	or     $0x1,%rax
    4526:	49 89 c6             	mov    %rax,%r14
    4529:	48 89 f2             	mov    %rsi,%rdx
    452c:	48 89 f1             	mov    %rsi,%rcx
    452f:	48 c1 ea 0b          	shr    $0xb,%rdx
    4533:	48 81 e1 00 f0 ff ff 	and    $0xfffffffffffff000,%rcx
    453a:	81 e2 fe 0f 00 00    	and    $0xffe,%edx
    4540:	48 03 15 a1 ca 00 00 	add    0xcaa1(%rip),%rdx        # 10fe8 <_GLOBAL_OFFSET_TABLE_+0x30>
    4547:	44 0f b7 0a          	movzwl (%rdx),%r9d
    454b:	4d 8d 24 09          	lea    (%r9,%rcx,1),%r12
    454f:	41 80 3c 24 c3       	cmpb   $0xc3,(%r12)
    4554:	74 3b                	je     4591 <internal_handle_exception+0x291>
    4556:	49 89 c9             	mov    %rcx,%r9
    4559:	48 8d 81 00 10 00 00 	lea    0x1000(%rcx),%rax
    4560:	eb 13                	jmp    4575 <internal_handle_exception+0x275>
    4562:	66 0f 1f 44 00 00    	nopw   0x0(%rax,%rax,1)
    4568:	49 83 c1 01          	add    $0x1,%r9
    456c:	4c 39 c8             	cmp    %r9,%rax
    456f:	0f 84 69 01 00 00    	je     46de <internal_handle_exception+0x3de>
    4575:	41 80 39 c3          	cmpb   $0xc3,(%r9)
    4579:	75 ed                	jne    4568 <internal_handle_exception+0x268>
    457b:	4c 39 c8             	cmp    %r9,%rax
    457e:	0f 84 5a 01 00 00    	je     46de <internal_handle_exception+0x3de>
    4584:	44 89 c8             	mov    %r9d,%eax
    4587:	4d 89 cc             	mov    %r9,%r12
    458a:	66 25 ff 0f          	and    $0xfff,%ax
    458e:	66 89 02             	mov    %ax,(%rdx)
    4591:	4c 89 e2             	mov    %r12,%rdx
    4594:	48 89 df             	mov    %rbx,%rdi
    4597:	48 89 4d a0          	mov    %rcx,-0x60(%rbp)
    459b:	e8 9b 82 00 00       	call   c83b <cselect_mitigation_regs>
    45a0:	48 8d 75 c0          	lea    -0x40(%rbp),%rsi
    45a4:	48 89 df             	mov    %rbx,%rdi
    45a7:	e8 74 ce ff ff       	call   1420 <ct_decode>
    45ac:	4d 89 f0             	mov    %r14,%r8
    45af:	be 01 00 00 00       	mov    $0x1,%esi
    45b4:	49 83 e0 fe          	and    $0xfffffffffffffffe,%r8
    45b8:	4c 63 c8             	movslq %eax,%r9
    45bb:	48 8b 45 c0          	mov    -0x40(%rbp),%rax
    45bf:	4c 89 c2             	mov    %r8,%rdx
    45c2:	4c 89 45 a8          	mov    %r8,-0x58(%rbp)
    45c6:	49 83 f9 01          	cmp    $0x1,%r9
    45ca:	48 0f 44 d0          	cmove  %rax,%rdx
    45ce:	49 83 f9 02          	cmp    $0x2,%r9
    45d2:	48 0f 44 d0          	cmove  %rax,%rdx
    45d6:	48 89 d7             	mov    %rdx,%rdi
    45d9:	4c 89 4d b0          	mov    %r9,-0x50(%rbp)
    45dd:	48 89 55 b8          	mov    %rdx,-0x48(%rbp)
    45e1:	e8 5a e4 ff ff       	call   2a40 <sgx_is_within_enclave>
    45e6:	48 8b 55 b8          	mov    -0x48(%rbp),%rdx
    45ea:	48 8b 4d a0          	mov    -0x60(%rbp),%rcx
    45ee:	4c 8b 45 a8          	mov    -0x58(%rbp),%r8
    45f2:	85 c0                	test   %eax,%eax
    45f4:	4c 8b 4d b0          	mov    -0x50(%rbp),%r9
    45f8:	48 98                	cltq
    45fa:	4c 0f 45 c2          	cmovne %rdx,%r8
    45fe:	48 89 ca             	mov    %rcx,%rdx
    4601:	48 83 ca 01          	or     $0x1,%rdx
    4605:	49 83 f9 02          	cmp    $0x2,%r9
    4609:	48 0f 44 ca          	cmove  %rdx,%rcx
    460d:	48 89 ca             	mov    %rcx,%rdx
    4610:	48 83 e2 fe          	and    $0xfffffffffffffffe,%rdx
    4614:	48 83 f8 01          	cmp    $0x1,%rax
    4618:	48 0f 44 d1          	cmove  %rcx,%rdx
    461c:	41 83 af bc 00 00 00 	subl   $0x1,0xbc(%r15)
    4623:	01 
    4624:	78 57                	js     467d <internal_handle_exception+0x37d>
    4626:	41 8b 8f b8 00 00 00 	mov    0xb8(%r15),%ecx
    462d:	49 8b 77 20          	mov    0x20(%r15),%rsi
    4631:	4d 89 e1             	mov    %r12,%r9
    4634:	48 89 df             	mov    %rbx,%rdi
    4637:	89 c8                	mov    %ecx,%eax
    4639:	c1 e1 04             	shl    $0x4,%ecx
    463c:	48 81 c6 a7 00 00 00 	add    $0xa7,%rsi
    4643:	d1 e8                	shr    $1,%eax
    4645:	83 e1 10             	and    $0x10,%ecx
    4648:	41 89 87 b8 00 00 00 	mov    %eax,0xb8(%r15)
    464f:	48 09 d1             	or     %rdx,%rcx
    4652:	4c 89 f2             	mov    %r14,%rdx
    4655:	e8 0d 83 00 00       	call   c967 <constant_time_apply_sgxstep_mitigation_and_continue_execution>
    465a:	e9 31 fe ff ff       	jmp    4490 <internal_handle_exception+0x190>
    465f:	48 8b 7b 20          	mov    0x20(%rbx),%rdi
    4663:	e8 c8 fb ff ff       	call   4230 <is_valid_sp>
    4668:	84 c0                	test   %al,%al
    466a:	0f 84 20 fe ff ff    	je     4490 <internal_handle_exception+0x190>
    4670:	49 c7 45 78 ff ff ff 	movq   $0xffffffffffffffff,0x78(%r13)
    4677:	ff 
    4678:	e9 34 fe ff ff       	jmp    44b1 <internal_handle_exception+0x1b1>
    467d:	49 8d bf b8 00 00 00 	lea    0xb8(%r15),%rdi
    4684:	48 89 55 b0          	mov    %rdx,-0x50(%rbp)
    4688:	4c 89 45 b8          	mov    %r8,-0x48(%rbp)
    468c:	e8 8c 88 00 00       	call   cf1d <do_rdrand>
    4691:	4c 8b 45 b8          	mov    -0x48(%rbp),%r8
    4695:	48 8b 55 b0          	mov    -0x50(%rbp),%rdx
    4699:	85 c0                	test   %eax,%eax
    469b:	74 4d                	je     46ea <internal_handle_exception+0x3ea>
    469d:	41 c7 87 bc 00 00 00 	movl   $0x1f,0xbc(%r15)
    46a4:	1f 00 00 00 
    46a8:	e9 79 ff ff ff       	jmp    4626 <internal_handle_exception+0x326>
    46ad:	49 81 e4 00 f0 ff ff 	and    $0xfffffffffffff000,%r12
    46b4:	4d 39 f4             	cmp    %r14,%r12
    46b7:	0f 84 6c fe ff ff    	je     4529 <internal_handle_exception+0x229>
    46bd:	49 81 ee 00 10 00 00 	sub    $0x1000,%r14
    46c4:	49 83 ce 01          	or     $0x1,%r14
    46c8:	e9 5c fe ff ff       	jmp    4529 <internal_handle_exception+0x229>
    46cd:	48 8d 3d b4 f1 00 00 	lea    0xf1b4(%rip),%rdi        # 13888 <_ZL14g_handler_lock>
    46d4:	e8 b7 41 00 00       	call   8890 <sgx_spin_unlock>
    46d9:	e9 b2 fd ff ff       	jmp    4490 <internal_handle_exception+0x190>
    46de:	4c 8d 25 1b 84 00 00 	lea    0x841b(%rip),%r12        # cb00 <__ct_mitigation_ret>
    46e5:	e9 a7 fe ff ff       	jmp    4591 <internal_handle_exception+0x291>
    46ea:	49 c7 47 78 ff ff ff 	movq   $0xffffffffffffffff,0x78(%r15)
    46f1:	ff 
    46f2:	e8 49 88 00 00       	call   cf40 <abort>
    46f7:	66 0f 1f 84 00 00 00 	nopw   0x0(%rax,%rax,1)
    46fe:	00 00 

0000000000004700 <trts_handle_exception>:
    4700:	f3 0f 1e fa          	endbr64
    4704:	41 57                	push   %r15
    4706:	41 56                	push   %r14
    4708:	41 55                	push   %r13
    470a:	41 54                	push   %r12
    470c:	55                   	push   %rbp
    470d:	53                   	push   %rbx
    470e:	48 89 fb             	mov    %rdi,%rbx
    4711:	48 83 ec 08          	sub    $0x8,%rsp
    4715:	e8 32 84 00 00       	call   cb4c <get_thread_data>
    471a:	48 85 c0             	test   %rax,%rax
    471d:	48 89 c5             	mov    %rax,%rbp
    4720:	0f 94 c2             	sete   %dl
    4723:	48 85 db             	test   %rbx,%rbx
    4726:	0f 94 c0             	sete   %al
    4729:	08 c2                	or     %al,%dl
    472b:	75 33                	jne    4760 <trts_handle_exception+0x60>
    472d:	48 89 df             	mov    %rbx,%rdi
    4730:	41 89 d4             	mov    %edx,%r12d
    4733:	e8 38 e6 ff ff       	call   2d70 <check_static_stack_canary>
    4738:	85 c0                	test   %eax,%eax
    473a:	75 24                	jne    4760 <trts_handle_exception+0x60>
    473c:	e8 cc 83 00 00       	call   cb0d <get_enclave_state>
    4741:	83 f8 02             	cmp    $0x2,%eax
    4744:	75 1a                	jne    4760 <trts_handle_exception+0x60>
    4746:	48 83 7d 78 ff       	cmpq   $0xffffffffffffffff,0x78(%rbp)
    474b:	74 13                	je     4760 <trts_handle_exception+0x60>
    474d:	48 8b 45 10          	mov    0x10(%rbp),%rax
    4751:	48 05 00 04 01 00    	add    $0x10400,%rax
    4757:	48 39 c3             	cmp    %rax,%rbx
    475a:	74 24                	je     4780 <trts_handle_exception+0x80>
    475c:	0f 1f 40 00          	nopl   0x0(%rax)
    4760:	bf 03 00 00 00       	mov    $0x3,%edi
    4765:	e8 b4 83 00 00       	call   cb1e <set_enclave_state>
    476a:	b8 06 10 00 00       	mov    $0x1006,%eax
    476f:	48 83 c4 08          	add    $0x8,%rsp
    4773:	5b                   	pop    %rbx
    4774:	5d                   	pop    %rbp
    4775:	41 5c                	pop    %r12
    4777:	41 5d                	pop    %r13
    4779:	41 5e                	pop    %r14
    477b:	41 5f                	pop    %r15
    477d:	c3                   	ret
    477e:	66 90                	xchg   %ax,%ax
    4780:	4c 8b 6d 20          	mov    0x20(%rbp),%r13
    4784:	e8 27 fb ff ff       	call   42b0 <get_xsave_size>
    4789:	48 05 b7 10 00 00    	add    $0x10b7,%rax
    478f:	49 81 e5 00 f0 ff ff 	and    $0xfffffffffffff000,%r13
    4796:	48 25 00 f0 ff ff    	and    $0xfffffffffffff000,%rax
    479c:	49 29 c5             	sub    %rax,%r13
    479f:	4c 39 eb             	cmp    %r13,%rbx
    47a2:	75 bc                	jne    4760 <trts_handle_exception+0x60>
    47a4:	4c 8b 6d 20          	mov    0x20(%rbp),%r13
    47a8:	be 08 00 00 00       	mov    $0x8,%esi
    47ad:	4d 8b b5 90 00 00 00 	mov    0x90(%r13),%r14
    47b4:	4c 89 f7             	mov    %r14,%rdi
    47b7:	e8 e4 e2 ff ff       	call   2aa0 <sgx_is_outside_enclave>
    47bc:	85 c0                	test   %eax,%eax
    47be:	0f 84 ec 01 00 00    	je     49b0 <trts_handle_exception+0x2b0>
    47c4:	49 8b 5d 20          	mov    0x20(%r13),%rbx
    47c8:	49 39 de             	cmp    %rbx,%r14
    47cb:	0f 84 df 01 00 00    	je     49b0 <trts_handle_exception+0x2b0>
    47d1:	31 f6                	xor    %esi,%esi
    47d3:	48 89 df             	mov    %rbx,%rdi
    47d6:	e8 15 fa ff ff       	call   41f0 <is_stack_addr>
    47db:	84 c0                	test   %al,%al
    47dd:	0f 84 cd 01 00 00    	je     49b0 <trts_handle_exception+0x2b0>
    47e3:	48 8b 45 38          	mov    0x38(%rbp),%rax
    47e7:	48 8d b0 88 01 00 00 	lea    0x188(%rax),%rsi
    47ee:	48 29 f3             	sub    %rsi,%rbx
    47f1:	48 83 e3 c0          	and    $0xffffffffffffffc0,%rbx
    47f5:	48 89 df             	mov    %rbx,%rdi
    47f8:	e8 f3 f9 ff ff       	call   41f0 <is_stack_addr>
    47fd:	84 c0                	test   %al,%al
    47ff:	0f 84 ab 01 00 00    	je     49b0 <trts_handle_exception+0x2b0>
    4805:	4c 8d 7b f8          	lea    -0x8(%rbx),%r15
    4809:	be 08 00 00 00       	mov    $0x8,%esi
    480e:	4c 89 ff             	mov    %r15,%rdi
    4811:	e8 da f9 ff ff       	call   41f0 <is_stack_addr>
    4816:	41 89 c6             	mov    %eax,%r14d
    4819:	84 c0                	test   %al,%al
    481b:	0f 84 8f 01 00 00    	je     49b0 <trts_handle_exception+0x2b0>
    4821:	48 8b bd b0 00 00 00 	mov    0xb0(%rbp),%rdi
    4828:	49 39 ff             	cmp    %rdi,%r15
    482b:	0f 83 93 01 00 00    	jae    49c4 <trts_handle_exception+0x2c4>
    4831:	4c 8d a7 ff 0f 00 00 	lea    0xfff(%rdi),%r12
    4838:	4d 29 fc             	sub    %r15,%r12
    483b:	49 81 e4 00 f0 ff ff 	and    $0xfffffffffffff000,%r12
    4842:	49 39 fc             	cmp    %rdi,%r12
    4845:	0f 83 65 01 00 00    	jae    49b0 <trts_handle_exception+0x2b0>
    484b:	4c 29 e7             	sub    %r12,%rdi
    484e:	48 3b 7d 18          	cmp    0x18(%rbp),%rdi
    4852:	0f 82 58 01 00 00    	jb     49b0 <trts_handle_exception+0x2b0>
    4858:	4d 85 e4             	test   %r12,%r12
    485b:	0f 84 4f 01 00 00    	je     49b0 <trts_handle_exception+0x2b0>
    4861:	4c 89 e6             	mov    %r12,%rsi
    4864:	e8 27 34 00 00       	call   7c90 <mm_commit>
    4869:	85 c0                	test   %eax,%eax
    486b:	0f 85 3f 01 00 00    	jne    49b0 <trts_handle_exception+0x2b0>
    4871:	48 8d 05 6c c5 00 00 	lea    0xc56c(%rip),%rax        # 10de4 <g_aexnotify_supported>
    4878:	4c 29 a5 b0 00 00 00 	sub    %r12,0xb0(%rbp)
    487f:	45 89 f4             	mov    %r14d,%r12d
    4882:	8b 08                	mov    (%rax),%ecx
    4884:	31 c0                	xor    %eax,%eax
    4886:	89 83 a8 00 00 00    	mov    %eax,0xa8(%rbx)
    488c:	41 0f b6 85 a0 00 00 	movzbl 0xa0(%r13),%eax
    4893:	00 
    4894:	89 83 90 00 00 00    	mov    %eax,0x90(%rbx)
    489a:	41 0f b6 95 a1 00 00 	movzbl 0xa1(%r13),%edx
    48a1:	00 
    48a2:	83 e8 0d             	sub    $0xd,%eax
    48a5:	83 e2 07             	and    $0x7,%edx
    48a8:	89 93 94 00 00 00    	mov    %edx,0x94(%rbx)
    48ae:	48 8b 55 38          	mov    0x38(%rbp),%rdx
    48b2:	48 89 93 b0 00 00 00 	mov    %rdx,0xb0(%rbx)
    48b9:	49 8b 55 00          	mov    0x0(%r13),%rdx
    48bd:	48 89 13             	mov    %rdx,(%rbx)
    48c0:	49 8b 55 08          	mov    0x8(%r13),%rdx
    48c4:	48 89 53 08          	mov    %rdx,0x8(%rbx)
    48c8:	49 8b 55 10          	mov    0x10(%r13),%rdx
    48cc:	48 89 53 10          	mov    %rdx,0x10(%rbx)
    48d0:	49 8b 55 18          	mov    0x18(%r13),%rdx
    48d4:	48 89 53 18          	mov    %rdx,0x18(%rbx)
    48d8:	49 8b 55 20          	mov    0x20(%r13),%rdx
    48dc:	48 89 53 20          	mov    %rdx,0x20(%rbx)
    48e0:	49 8b 55 28          	mov    0x28(%r13),%rdx
    48e4:	48 89 53 28          	mov    %rdx,0x28(%rbx)
    48e8:	49 8b 55 30          	mov    0x30(%r13),%rdx
    48ec:	48 89 53 30          	mov    %rdx,0x30(%rbx)
    48f0:	49 8b 55 38          	mov    0x38(%r13),%rdx
    48f4:	48 89 53 38          	mov    %rdx,0x38(%rbx)
    48f8:	49 8b 95 80 00 00 00 	mov    0x80(%r13),%rdx
    48ff:	48 89 93 80 00 00 00 	mov    %rdx,0x80(%rbx)
    4906:	49 8b 95 88 00 00 00 	mov    0x88(%r13),%rdx
    490d:	48 89 93 88 00 00 00 	mov    %rdx,0x88(%rbx)
    4914:	49 8b 75 40          	mov    0x40(%r13),%rsi
    4918:	48 89 73 40          	mov    %rsi,0x40(%rbx)
    491c:	49 8b 75 48          	mov    0x48(%r13),%rsi
    4920:	48 89 73 48          	mov    %rsi,0x48(%rbx)
    4924:	49 8b 75 50          	mov    0x50(%r13),%rsi
    4928:	48 89 73 50          	mov    %rsi,0x50(%rbx)
    492c:	49 8b 75 58          	mov    0x58(%r13),%rsi
    4930:	48 89 73 58          	mov    %rsi,0x58(%rbx)
    4934:	49 8b 75 60          	mov    0x60(%r13),%rsi
    4938:	48 89 73 60          	mov    %rsi,0x60(%rbx)
    493c:	49 8b 75 68          	mov    0x68(%r13),%rsi
    4940:	48 89 73 68          	mov    %rsi,0x68(%rbx)
    4944:	49 8b 75 70          	mov    0x70(%r13),%rsi
    4948:	48 89 73 70          	mov    %rsi,0x70(%rbx)
    494c:	49 8b 75 78          	mov    0x78(%r13),%rsi
    4950:	48 89 73 78          	mov    %rsi,0x78(%rbx)
    4954:	83 f8 01             	cmp    $0x1,%eax
    4957:	77 15                	ja     496e <trts_handle_exception+0x26e>
    4959:	49 8b 45 f0          	mov    -0x10(%r13),%rax
    495d:	48 89 83 98 00 00 00 	mov    %rax,0x98(%rbx)
    4964:	41 8b 45 f8          	mov    -0x8(%r13),%eax
    4968:	89 83 a0 00 00 00    	mov    %eax,0xa0(%rbx)
    496e:	85 c9                	test   %ecx,%ecx
    4970:	0f 85 99 00 00 00    	jne    4a0f <trts_handle_exception+0x30f>
    4976:	45 84 e4             	test   %r12b,%r12b
    4979:	0f 85 ec 00 00 00    	jne    4a6b <trts_handle_exception+0x36b>
    497f:	48 8d 05 7a f9 ff ff 	lea    -0x686(%rip),%rax        # 4300 <internal_handle_exception>
    4986:	4d 89 7d 20          	mov    %r15,0x20(%r13)
    498a:	49 89 85 88 00 00 00 	mov    %rax,0x88(%r13)
    4991:	49 89 5d 00          	mov    %rbx,0x0(%r13)
    4995:	49 89 5d 38          	mov    %rbx,0x38(%r13)
    4999:	48 8b 83 88 00 00 00 	mov    0x88(%rbx),%rax
    49a0:	48 89 43 f8          	mov    %rax,-0x8(%rbx)
    49a4:	31 c0                	xor    %eax,%eax
    49a6:	e9 c4 fd ff ff       	jmp    476f <trts_handle_exception+0x6f>
    49ab:	0f 1f 44 00 00       	nopl   0x0(%rax,%rax,1)
    49b0:	bf 03 00 00 00       	mov    $0x3,%edi
    49b5:	e8 64 81 00 00       	call   cb1e <set_enclave_state>
    49ba:	b8 09 10 00 00       	mov    $0x1009,%eax
    49bf:	e9 ab fd ff ff       	jmp    476f <trts_handle_exception+0x6f>
    49c4:	48 8d 15 19 c4 00 00 	lea    0xc419(%rip),%rdx        # 10de4 <g_aexnotify_supported>
    49cb:	49 8b 85 88 00 00 00 	mov    0x88(%r13),%rax
    49d2:	48 3b 05 07 c6 00 00 	cmp    0xc607(%rip),%rax        # 10fe0 <_GLOBAL_OFFSET_TABLE_+0x28>
    49d9:	8b 0a                	mov    (%rdx),%ecx
    49db:	74 6a                	je     4a47 <trts_handle_exception+0x347>
    49dd:	48 3b 05 f4 c5 00 00 	cmp    0xc5f4(%rip),%rax        # 10fd8 <_GLOBAL_OFFSET_TABLE_+0x20>
    49e4:	0f 84 8c 00 00 00    	je     4a76 <trts_handle_exception+0x376>
    49ea:	85 c9                	test   %ecx,%ecx
    49ec:	75 0e                	jne    49fc <trts_handle_exception+0x2fc>
    49ee:	41 80 bd a3 00 00 00 	cmpb   $0x0,0xa3(%r13)
    49f5:	00 
    49f6:	0f 89 64 fd ff ff    	jns    4760 <trts_handle_exception+0x60>
    49fc:	41 0f b6 85 a3 00 00 	movzbl 0xa3(%r13),%eax
    4a03:	00 
    4a04:	c0 e8 07             	shr    $0x7,%al
    4a07:	0f b6 c0             	movzbl %al,%eax
    4a0a:	e9 77 fe ff ff       	jmp    4886 <trts_handle_exception+0x186>
    4a0f:	48 89 53 f8          	mov    %rdx,-0x8(%rbx)
    4a13:	e8 b8 f8 ff ff       	call   42d0 <get_ssa_aexnotify>
    4a18:	48 8b 7d 58          	mov    0x58(%rbp),%rdi
    4a1c:	89 83 ac 00 00 00    	mov    %eax,0xac(%rbx)
    4a22:	e8 ca 7c 00 00       	call   c6f1 <restore_xregs>
    4a27:	83 bb ac 00 00 00 01 	cmpl   $0x1,0xac(%rbx)
    4a2e:	74 76                	je     4aa6 <trts_handle_exception+0x3a6>
    4a30:	48 8d 15 c9 f8 ff ff 	lea    -0x737(%rip),%rdx        # 4300 <internal_handle_exception>
    4a37:	4c 89 fe             	mov    %r15,%rsi
    4a3a:	48 89 df             	mov    %rbx,%rdi
    4a3d:	e8 77 85 00 00       	call   cfb9 <second_phase>
    4a42:	e9 19 fd ff ff       	jmp    4760 <trts_handle_exception+0x60>
    4a47:	49 83 7d 00 00       	cmpq   $0x0,0x0(%r13)
    4a4c:	75 8f                	jne    49dd <trts_handle_exception+0x2dd>
    4a4e:	48 83 c0 03          	add    $0x3,%rax
    4a52:	49 83 8d 80 00 00 00 	orq    $0x1,0x80(%r13)
    4a59:	01 
    4a5a:	45 89 f4             	mov    %r14d,%r12d
    4a5d:	49 89 85 88 00 00 00 	mov    %rax,0x88(%r13)
    4a64:	31 c0                	xor    %eax,%eax
    4a66:	e9 1b fe ff ff       	jmp    4886 <trts_handle_exception+0x186>
    4a6b:	48 89 53 f8          	mov    %rdx,-0x8(%rbx)
    4a6f:	31 c0                	xor    %eax,%eax
    4a71:	e9 f9 fc ff ff       	jmp    476f <trts_handle_exception+0x6f>
    4a76:	49 83 7d 00 08       	cmpq   $0x8,0x0(%r13)
    4a7b:	0f 85 69 ff ff ff    	jne    49ea <trts_handle_exception+0x2ea>
    4a81:	48 83 c0 03          	add    $0x3,%rax
    4a85:	49 83 8d 80 00 00 00 	orq    $0x40,0x80(%r13)
    4a8c:	40 
    4a8d:	45 89 f4             	mov    %r14d,%r12d
    4a90:	49 89 85 88 00 00 00 	mov    %rax,0x88(%r13)
    4a97:	31 c0                	xor    %eax,%eax
    4a99:	49 c7 45 00 01 00 00 	movq   $0x1,0x0(%r13)
    4aa0:	00 
    4aa1:	e9 e0 fd ff ff       	jmp    4886 <trts_handle_exception+0x186>
    4aa6:	31 ff                	xor    %edi,%edi
    4aa8:	e8 a3 e8 ff ff       	call   3350 <sgx_set_ssa_aexnotify>
    4aad:	eb 81                	jmp    4a30 <trts_handle_exception+0x330>
    4aaf:	90                   	nop

0000000000004ab0 <get_xfeature_state>:
    4ab0:	f3 0f 1e fa          	endbr64
    4ab4:	48 83 ec 08          	sub    $0x8,%rsp
    4ab8:	e8 33 73 00 00       	call   bdf0 <sgx_self_report>
    4abd:	31 d2                	xor    %edx,%edx
    4abf:	48 8b 40 38          	mov    0x38(%rax),%rax
    4ac3:	48 83 f8 03          	cmp    $0x3,%rax
    4ac7:	0f 95 c2             	setne  %dl
    4aca:	89 15 78 ed 00 00    	mov    %edx,0xed78(%rip)        # 13848 <g_xsave_enabled>
    4ad0:	48 83 c4 08          	add    $0x8,%rsp
    4ad4:	c3                   	ret
    4ad5:	66 2e 0f 1f 84 00 00 	cs nopw 0x0(%rax,%rax,1)
    4adc:	00 00 00 
    4adf:	90                   	nop

0000000000004ae0 <has_text_relo>:
    4ae0:	85 d2                	test   %edx,%edx
    4ae2:	74 5b                	je     4b3f <has_text_relo+0x5f>
    4ae4:	89 d2                	mov    %edx,%edx
    4ae6:	48 8d 04 d5 00 00 00 	lea    0x0(,%rdx,8),%rax
    4aed:	00 
    4aee:	48 29 d0             	sub    %rdx,%rax
    4af1:	48 8d 04 c6          	lea    (%rsi,%rax,8),%rax
    4af5:	eb 12                	jmp    4b09 <has_text_relo+0x29>
    4af7:	66 0f 1f 84 00 00 00 	nopw   0x0(%rax,%rax,1)
    4afe:	00 00 
    4b00:	48 83 c6 38          	add    $0x38,%rsi
    4b04:	48 39 c6             	cmp    %rax,%rsi
    4b07:	74 36                	je     4b3f <has_text_relo+0x5f>
    4b09:	83 3e 02             	cmpl   $0x2,(%rsi)
    4b0c:	75 f2                	jne    4b00 <has_text_relo+0x20>
    4b0e:	48 8b 56 20          	mov    0x20(%rsi),%rdx
    4b12:	48 03 7e 18          	add    0x18(%rsi),%rdi
    4b16:	48 c1 ea 04          	shr    $0x4,%rdx
    4b1a:	74 23                	je     4b3f <has_text_relo+0x5f>
    4b1c:	48 c1 e2 04          	shl    $0x4,%rdx
    4b20:	48 01 fa             	add    %rdi,%rdx
    4b23:	eb 12                	jmp    4b37 <has_text_relo+0x57>
    4b25:	0f 1f 00             	nopl   (%rax)
    4b28:	48 83 f8 16          	cmp    $0x16,%rax
    4b2c:	74 1a                	je     4b48 <has_text_relo+0x68>
    4b2e:	48 83 c7 10          	add    $0x10,%rdi
    4b32:	48 39 fa             	cmp    %rdi,%rdx
    4b35:	74 08                	je     4b3f <has_text_relo+0x5f>
    4b37:	48 8b 07             	mov    (%rdi),%rax
    4b3a:	48 85 c0             	test   %rax,%rax
    4b3d:	75 e9                	jne    4b28 <has_text_relo+0x48>
    4b3f:	31 c0                	xor    %eax,%eax
    4b41:	c3                   	ret
    4b42:	66 0f 1f 44 00 00    	nopw   0x0(%rax,%rax,1)
    4b48:	b8 01 00 00 00       	mov    $0x1,%eax
    4b4d:	c3                   	ret
    4b4e:	66 90                	xchg   %ax,%ax

0000000000004b50 <do_relocs>:
    4b50:	49 89 d3             	mov    %rdx,%r11
    4b53:	48 8d 14 37          	lea    (%rdi,%rsi,1),%rdx
    4b57:	49 01 fb             	add    %rdi,%r11
    4b5a:	48 85 c9             	test   %rcx,%rcx
    4b5d:	0f 84 c2 01 00 00    	je     4d25 <do_relocs+0x1d5>
    4b63:	55                   	push   %rbp
    4b64:	49 89 c9             	mov    %rcx,%r9
    4b67:	31 f6                	xor    %esi,%esi
    4b69:	4c 8d 05 30 85 00 00 	lea    0x8530(%rip),%r8        # d0a0 <g_dyn_entry_table+0xa0>
    4b70:	53                   	push   %rbx
    4b71:	0f 1f 80 00 00 00 00 	nopl   0x0(%rax)
    4b78:	4c 8b 12             	mov    (%rdx),%r10
    4b7b:	48 8b 42 08          	mov    0x8(%rdx),%rax
    4b7f:	49 01 fa             	add    %rdi,%r10
    4b82:	89 c1                	mov    %eax,%ecx
    4b84:	83 f8 12             	cmp    $0x12,%eax
    4b87:	0f 87 85 00 00 00    	ja     4c12 <do_relocs+0xc2>
    4b8d:	49 63 0c 88          	movslq (%r8,%rcx,4),%rcx
    4b91:	4c 01 c1             	add    %r8,%rcx
    4b94:	3e ff e1             	notrack jmp *%rcx
    4b97:	66 0f 1f 84 00 00 00 	nopw   0x0(%rax,%rax,1)
    4b9e:	00 00 
    4ba0:	48 c1 e8 20          	shr    $0x20,%rax
    4ba4:	48 8d 04 40          	lea    (%rax,%rax,2),%rax
    4ba8:	49 8d 1c c3          	lea    (%r11,%rax,8),%rbx
    4bac:	0f b6 43 04          	movzbl 0x4(%rbx),%eax
    4bb0:	c0 e8 04             	shr    $0x4,%al
    4bb3:	3c 02                	cmp    $0x2,%al
    4bb5:	0f 84 05 01 00 00    	je     4cc0 <do_relocs+0x170>
    4bbb:	48 85 db             	test   %rbx,%rbx
    4bbe:	0f 84 8c 00 00 00    	je     4c50 <do_relocs+0x100>
    4bc4:	48 85 ff             	test   %rdi,%rdi
    4bc7:	74 49                	je     4c12 <do_relocs+0xc2>
    4bc9:	81 3f 7f 45 4c 46    	cmpl   $0x464c457f,(%rdi)
    4bcf:	75 41                	jne    4c12 <do_relocs+0xc2>
    4bd1:	66 83 7f 10 03       	cmpw   $0x3,0x10(%rdi)
    4bd6:	75 3a                	jne    4c12 <do_relocs+0xc2>
    4bd8:	48 89 f8             	mov    %rdi,%rax
    4bdb:	48 03 47 20          	add    0x20(%rdi),%rax
    4bdf:	74 31                	je     4c12 <do_relocs+0xc2>
    4be1:	0f b7 6f 38          	movzwl 0x38(%rdi),%ebp
    4be5:	66 85 ed             	test   %bp,%bp
    4be8:	74 28                	je     4c12 <do_relocs+0xc2>
    4bea:	83 ed 01             	sub    $0x1,%ebp
    4bed:	48 8d 0c ed 00 00 00 	lea    0x0(,%rbp,8),%rcx
    4bf4:	00 
    4bf5:	48 29 e9             	sub    %rbp,%rcx
    4bf8:	48 8d 4c c8 38       	lea    0x38(%rax,%rcx,8),%rcx
    4bfd:	0f 1f 00             	nopl   (%rax)
    4c00:	83 38 07             	cmpl   $0x7,(%rax)
    4c03:	0f 84 e7 00 00 00    	je     4cf0 <do_relocs+0x1a0>
    4c09:	48 83 c0 38          	add    $0x38,%rax
    4c0d:	48 39 c8             	cmp    %rcx,%rax
    4c10:	75 ee                	jne    4c00 <do_relocs+0xb0>
    4c12:	b8 ff ff ff ff       	mov    $0xffffffff,%eax
    4c17:	5b                   	pop    %rbx
    4c18:	5d                   	pop    %rbp
    4c19:	c3                   	ret
    4c1a:	66 0f 1f 44 00 00    	nopw   0x0(%rax,%rax,1)
    4c20:	48 c1 e8 20          	shr    $0x20,%rax
    4c24:	48 8d 04 40          	lea    (%rax,%rax,2),%rax
    4c28:	49 8d 0c c3          	lea    (%r11,%rax,8),%rcx
    4c2c:	0f b6 41 04          	movzbl 0x4(%rcx),%eax
    4c30:	c0 e8 04             	shr    $0x4,%al
    4c33:	3c 02                	cmp    $0x2,%al
    4c35:	0f 84 95 00 00 00    	je     4cd0 <do_relocs+0x180>
    4c3b:	48 85 c9             	test   %rcx,%rcx
    4c3e:	74 10                	je     4c50 <do_relocs+0x100>
    4c40:	48 8b 42 10          	mov    0x10(%rdx),%rax
    4c44:	48 01 f8             	add    %rdi,%rax
    4c47:	48 03 41 08          	add    0x8(%rcx),%rax
    4c4b:	49 89 02             	mov    %rax,(%r10)
    4c4e:	66 90                	xchg   %ax,%ax
    4c50:	48 83 c6 01          	add    $0x1,%rsi
    4c54:	48 83 c2 18          	add    $0x18,%rdx
    4c58:	49 39 f1             	cmp    %rsi,%r9
    4c5b:	0f 85 17 ff ff ff    	jne    4b78 <do_relocs+0x28>
    4c61:	31 c0                	xor    %eax,%eax
    4c63:	5b                   	pop    %rbx
    4c64:	5d                   	pop    %rbp
    4c65:	c3                   	ret
    4c66:	66 2e 0f 1f 84 00 00 	cs nopw 0x0(%rax,%rax,1)
    4c6d:	00 00 00 
    4c70:	48 c1 e8 20          	shr    $0x20,%rax
    4c74:	48 8d 04 40          	lea    (%rax,%rax,2),%rax
    4c78:	49 8d 0c c3          	lea    (%r11,%rax,8),%rcx
    4c7c:	0f b6 41 04          	movzbl 0x4(%rcx),%eax
    4c80:	c0 e8 04             	shr    $0x4,%al
    4c83:	3c 02                	cmp    $0x2,%al
    4c85:	74 59                	je     4ce0 <do_relocs+0x190>
    4c87:	48 85 c9             	test   %rcx,%rcx
    4c8a:	74 c4                	je     4c50 <do_relocs+0x100>
    4c8c:	48 8b 42 10          	mov    0x10(%rdx),%rax
    4c90:	48 03 41 08          	add    0x8(%rcx),%rax
    4c94:	49 89 02             	mov    %rax,(%r10)
    4c97:	eb b7                	jmp    4c50 <do_relocs+0x100>
    4c99:	0f 1f 80 00 00 00 00 	nopl   0x0(%rax)
    4ca0:	49 c7 02 01 00 00 00 	movq   $0x1,(%r10)
    4ca7:	eb a7                	jmp    4c50 <do_relocs+0x100>
    4ca9:	0f 1f 80 00 00 00 00 	nopl   0x0(%rax)
    4cb0:	48 8b 42 10          	mov    0x10(%rdx),%rax
    4cb4:	48 01 f8             	add    %rdi,%rax
    4cb7:	49 89 02             	mov    %rax,(%r10)
    4cba:	eb 94                	jmp    4c50 <do_relocs+0x100>
    4cbc:	0f 1f 40 00          	nopl   0x0(%rax)
    4cc0:	48 83 7b 08 00       	cmpq   $0x0,0x8(%rbx)
    4cc5:	0f 85 f0 fe ff ff    	jne    4bbb <do_relocs+0x6b>
    4ccb:	eb 83                	jmp    4c50 <do_relocs+0x100>
    4ccd:	0f 1f 00             	nopl   (%rax)
    4cd0:	48 83 79 08 00       	cmpq   $0x0,0x8(%rcx)
    4cd5:	0f 85 60 ff ff ff    	jne    4c3b <do_relocs+0xeb>
    4cdb:	e9 70 ff ff ff       	jmp    4c50 <do_relocs+0x100>
    4ce0:	48 83 79 08 00       	cmpq   $0x0,0x8(%rcx)
    4ce5:	75 a0                	jne    4c87 <do_relocs+0x137>
    4ce7:	e9 64 ff ff ff       	jmp    4c50 <do_relocs+0x100>
    4cec:	0f 1f 40 00          	nopl   0x0(%rax)
    4cf0:	48 8b 48 28          	mov    0x28(%rax),%rcx
    4cf4:	48 8b 40 30          	mov    0x30(%rax),%rax
    4cf8:	48 83 f8 01          	cmp    $0x1,%rax
    4cfc:	76 0b                	jbe    4d09 <do_relocs+0x1b9>
    4cfe:	48 8d 4c 01 ff       	lea    -0x1(%rcx,%rax,1),%rcx
    4d03:	48 f7 d8             	neg    %rax
    4d06:	48 21 c1             	and    %rax,%rcx
    4d09:	48 85 c9             	test   %rcx,%rcx
    4d0c:	0f 84 00 ff ff ff    	je     4c12 <do_relocs+0xc2>
    4d12:	48 8b 42 10          	mov    0x10(%rdx),%rax
    4d16:	48 03 43 08          	add    0x8(%rbx),%rax
    4d1a:	48 29 c8             	sub    %rcx,%rax
    4d1d:	49 89 02             	mov    %rax,(%r10)
    4d20:	e9 2b ff ff ff       	jmp    4c50 <do_relocs+0x100>
    4d25:	31 c0                	xor    %eax,%eax
    4d27:	c3                   	ret
    4d28:	0f 1f 84 00 00 00 00 	nopl   0x0(%rax,%rax,1)
    4d2f:	00 

0000000000004d30 <relocate_enclave>:
    4d30:	f3 0f 1e fa          	endbr64
    4d34:	48 85 ff             	test   %rdi,%rdi
    4d37:	0f 84 d3 01 00 00    	je     4f10 <relocate_enclave+0x1e0>
    4d3d:	81 3f 7f 45 4c 46    	cmpl   $0x464c457f,(%rdi)
    4d43:	0f 85 c7 01 00 00    	jne    4f10 <relocate_enclave+0x1e0>
    4d49:	66 83 7f 10 03       	cmpw   $0x3,0x10(%rdi)
    4d4e:	0f 85 bc 01 00 00    	jne    4f10 <relocate_enclave+0x1e0>
    4d54:	41 57                	push   %r15
    4d56:	41 56                	push   %r14
    4d58:	41 55                	push   %r13
    4d5a:	41 54                	push   %r12
    4d5c:	55                   	push   %rbp
    4d5d:	53                   	push   %rbx
    4d5e:	48 89 fb             	mov    %rdi,%rbx
    4d61:	48 83 ec 08          	sub    $0x8,%rsp
    4d65:	48 03 5f 20          	add    0x20(%rdi),%rbx
    4d69:	0f 84 fd 00 00 00    	je     4e6c <relocate_enclave+0x13c>
    4d6f:	0f b7 57 38          	movzwl 0x38(%rdi),%edx
    4d73:	66 85 d2             	test   %dx,%dx
    4d76:	0f 84 c4 01 00 00    	je     4f40 <relocate_enclave+0x210>
    4d7c:	83 ea 01             	sub    $0x1,%edx
    4d7f:	48 8d 2d 66 83 00 00 	lea    0x8366(%rip),%rbp        # d0ec <g_dyn_entry_table+0xec>
    4d86:	48 8d 04 d5 00 00 00 	lea    0x0(,%rdx,8),%rax
    4d8d:	00 
    4d8e:	48 29 d0             	sub    %rdx,%rax
    4d91:	4c 8d 64 c3 38       	lea    0x38(%rbx,%rax,8),%r12
    4d96:	eb 15                	jmp    4dad <relocate_enclave+0x7d>
    4d98:	0f 1f 84 00 00 00 00 	nopl   0x0(%rax,%rax,1)
    4d9f:	00 
    4da0:	48 83 c3 38          	add    $0x38,%rbx
    4da4:	49 39 dc             	cmp    %rbx,%r12
    4da7:	0f 84 93 01 00 00    	je     4f40 <relocate_enclave+0x210>
    4dad:	83 3b 02             	cmpl   $0x2,(%rbx)
    4db0:	75 ee                	jne    4da0 <relocate_enclave+0x70>
    4db2:	48 8b 53 18          	mov    0x18(%rbx),%rdx
    4db6:	4c 8b 53 20          	mov    0x20(%rbx),%r10
    4dba:	48 01 fa             	add    %rdi,%rdx
    4dbd:	49 c1 ea 04          	shr    $0x4,%r10
    4dc1:	74 dd                	je     4da0 <relocate_enclave+0x70>
    4dc3:	49 c1 e2 04          	shl    $0x4,%r10
    4dc7:	45 31 f6             	xor    %r14d,%r14d
    4dca:	45 31 ed             	xor    %r13d,%r13d
    4dcd:	31 c0                	xor    %eax,%eax
    4dcf:	49 01 d2             	add    %rdx,%r10
    4dd2:	45 31 ff             	xor    %r15d,%r15d
    4dd5:	45 31 c9             	xor    %r9d,%r9d
    4dd8:	45 31 c0             	xor    %r8d,%r8d
    4ddb:	0f 1f 44 00 00       	nopl   0x0(%rax,%rax,1)
    4de0:	48 8b 32             	mov    (%rdx),%rsi
    4de3:	48 85 f6             	test   %rsi,%rsi
    4de6:	74 30                	je     4e18 <relocate_enclave+0xe8>
    4de8:	48 83 fe 17          	cmp    $0x17,%rsi
    4dec:	77 1a                	ja     4e08 <relocate_enclave+0xd8>
    4dee:	48 63 74 b5 00       	movslq 0x0(%rbp,%rsi,4),%rsi
    4df3:	48 01 ee             	add    %rbp,%rsi
    4df6:	3e ff e6             	notrack jmp *%rsi
    4df9:	0f 1f 80 00 00 00 00 	nopl   0x0(%rax)
    4e00:	4c 8b 42 08          	mov    0x8(%rdx),%r8
    4e04:	0f 1f 40 00          	nopl   0x0(%rax)
    4e08:	48 83 c2 10          	add    $0x10,%rdx
    4e0c:	49 39 d2             	cmp    %rdx,%r10
    4e0f:	75 cf                	jne    4de0 <relocate_enclave+0xb0>
    4e11:	0f 1f 80 00 00 00 00 	nopl   0x0(%rax)
    4e18:	4d 85 c9             	test   %r9,%r9
    4e1b:	0f 84 ff 00 00 00    	je     4f20 <relocate_enclave+0x1f0>
    4e21:	4d 85 ed             	test   %r13,%r13
    4e24:	74 46                	je     4e6c <relocate_enclave+0x13c>
    4e26:	31 d2                	xor    %edx,%edx
    4e28:	4c 89 ce             	mov    %r9,%rsi
    4e2b:	4c 89 04 24          	mov    %r8,(%rsp)
    4e2f:	49 f7 f5             	div    %r13
    4e32:	4c 89 c2             	mov    %r8,%rdx
    4e35:	48 89 c1             	mov    %rax,%rcx
    4e38:	e8 13 fd ff ff       	call   4b50 <do_relocs>
    4e3d:	85 c0                	test   %eax,%eax
    4e3f:	75 2b                	jne    4e6c <relocate_enclave+0x13c>
    4e41:	4d 85 ff             	test   %r15,%r15
    4e44:	4c 8b 04 24          	mov    (%rsp),%r8
    4e48:	0f 84 52 ff ff ff    	je     4da0 <relocate_enclave+0x70>
    4e4e:	31 d2                	xor    %edx,%edx
    4e50:	4c 89 f0             	mov    %r14,%rax
    4e53:	4c 89 fe             	mov    %r15,%rsi
    4e56:	49 f7 f5             	div    %r13
    4e59:	4c 89 c2             	mov    %r8,%rdx
    4e5c:	48 89 c1             	mov    %rax,%rcx
    4e5f:	e8 ec fc ff ff       	call   4b50 <do_relocs>
    4e64:	85 c0                	test   %eax,%eax
    4e66:	0f 84 34 ff ff ff    	je     4da0 <relocate_enclave+0x70>
    4e6c:	48 83 c4 08          	add    $0x8,%rsp
    4e70:	b8 ff ff ff ff       	mov    $0xffffffff,%eax
    4e75:	5b                   	pop    %rbx
    4e76:	5d                   	pop    %rbp
    4e77:	41 5c                	pop    %r12
    4e79:	41 5d                	pop    %r13
    4e7b:	41 5e                	pop    %r14
    4e7d:	41 5f                	pop    %r15
    4e7f:	c3                   	ret
    4e80:	4c 8b 7a 08          	mov    0x8(%rdx),%r15
    4e84:	48 83 c2 10          	add    $0x10,%rdx
    4e88:	49 39 d2             	cmp    %rdx,%r10
    4e8b:	0f 85 4f ff ff ff    	jne    4de0 <relocate_enclave+0xb0>
    4e91:	eb 85                	jmp    4e18 <relocate_enclave+0xe8>
    4e93:	0f 1f 44 00 00       	nopl   0x0(%rax,%rax,1)
    4e98:	48 8b 42 08          	mov    0x8(%rdx),%rax
    4e9c:	48 83 c2 10          	add    $0x10,%rdx
    4ea0:	49 39 d2             	cmp    %rdx,%r10
    4ea3:	0f 85 37 ff ff ff    	jne    4de0 <relocate_enclave+0xb0>
    4ea9:	e9 6a ff ff ff       	jmp    4e18 <relocate_enclave+0xe8>
    4eae:	66 90                	xchg   %ax,%ax
    4eb0:	4c 8b 4a 08          	mov    0x8(%rdx),%r9
    4eb4:	48 83 c2 10          	add    $0x10,%rdx
    4eb8:	49 39 d2             	cmp    %rdx,%r10
    4ebb:	0f 85 1f ff ff ff    	jne    4de0 <relocate_enclave+0xb0>
    4ec1:	e9 52 ff ff ff       	jmp    4e18 <relocate_enclave+0xe8>
    4ec6:	66 2e 0f 1f 84 00 00 	cs nopw 0x0(%rax,%rax,1)
    4ecd:	00 00 00 
    4ed0:	4c 8b 72 08          	mov    0x8(%rdx),%r14
    4ed4:	48 83 c2 10          	add    $0x10,%rdx
    4ed8:	49 39 d2             	cmp    %rdx,%r10
    4edb:	0f 85 ff fe ff ff    	jne    4de0 <relocate_enclave+0xb0>
    4ee1:	e9 32 ff ff ff       	jmp    4e18 <relocate_enclave+0xe8>
    4ee6:	66 2e 0f 1f 84 00 00 	cs nopw 0x0(%rax,%rax,1)
    4eed:	00 00 00 
    4ef0:	4c 8b 6a 08          	mov    0x8(%rdx),%r13
    4ef4:	48 83 c2 10          	add    $0x10,%rdx
    4ef8:	49 39 d2             	cmp    %rdx,%r10
    4efb:	0f 85 df fe ff ff    	jne    4de0 <relocate_enclave+0xb0>
    4f01:	e9 12 ff ff ff       	jmp    4e18 <relocate_enclave+0xe8>
    4f06:	66 2e 0f 1f 84 00 00 	cs nopw 0x0(%rax,%rax,1)
    4f0d:	00 00 00 
    4f10:	b8 ff ff ff ff       	mov    $0xffffffff,%eax
    4f15:	c3                   	ret
    4f16:	66 2e 0f 1f 84 00 00 	cs nopw 0x0(%rax,%rax,1)
    4f1d:	00 00 00 
    4f20:	4d 85 ff             	test   %r15,%r15
    4f23:	0f 84 77 fe ff ff    	je     4da0 <relocate_enclave+0x70>
    4f29:	4d 85 ed             	test   %r13,%r13
    4f2c:	0f 84 3a ff ff ff    	je     4e6c <relocate_enclave+0x13c>
    4f32:	e9 17 ff ff ff       	jmp    4e4e <relocate_enclave+0x11e>
    4f37:	66 0f 1f 84 00 00 00 	nopw   0x0(%rax,%rax,1)
    4f3e:	00 00 
    4f40:	48 83 c4 08          	add    $0x8,%rsp
    4f44:	31 c0                	xor    %eax,%eax
    4f46:	5b                   	pop    %rbx
    4f47:	5d                   	pop    %rbp
    4f48:	41 5c                	pop    %r12
    4f4a:	41 5d                	pop    %r13
    4f4c:	41 5e                	pop    %r14
    4f4e:	41 5f                	pop    %r15
    4f50:	c3                   	ret
    4f51:	66 2e 0f 1f 84 00 00 	cs nopw 0x0(%rax,%rax,1)
    4f58:	00 00 00 
    4f5b:	0f 1f 44 00 00       	nopl   0x0(%rax,%rax,1)

0000000000004f60 <get_aligned_enclave_segments_size>:
    4f60:	f3 0f 1e fa          	endbr64
    4f64:	31 c0                	xor    %eax,%eax
    4f66:	48 85 ff             	test   %rdi,%rdi
    4f69:	0f 84 91 00 00 00    	je     5000 <get_aligned_enclave_segments_size+0xa0>
    4f6f:	81 3f 7f 45 4c 46    	cmpl   $0x464c457f,(%rdi)
    4f75:	0f 85 85 00 00 00    	jne    5000 <get_aligned_enclave_segments_size+0xa0>
    4f7b:	66 83 7f 10 03       	cmpw   $0x3,0x10(%rdi)
    4f80:	75 7e                	jne    5000 <get_aligned_enclave_segments_size+0xa0>
    4f82:	48 89 f8             	mov    %rdi,%rax
    4f85:	48 03 47 20          	add    0x20(%rdi),%rax
    4f89:	48 89 c2             	mov    %rax,%rdx
    4f8c:	74 72                	je     5000 <get_aligned_enclave_segments_size+0xa0>
    4f8e:	0f b7 4f 38          	movzwl 0x38(%rdi),%ecx
    4f92:	66 85 c9             	test   %cx,%cx
    4f95:	74 6a                	je     5001 <get_aligned_enclave_segments_size+0xa1>
    4f97:	83 e9 01             	sub    $0x1,%ecx
    4f9a:	31 f6                	xor    %esi,%esi
    4f9c:	31 ff                	xor    %edi,%edi
    4f9e:	48 8d 04 cd 00 00 00 	lea    0x0(,%rcx,8),%rax
    4fa5:	00 
    4fa6:	48 29 c8             	sub    %rcx,%rax
    4fa9:	48 8d 44 c2 38       	lea    0x38(%rdx,%rax,8),%rax
    4fae:	eb 09                	jmp    4fb9 <get_aligned_enclave_segments_size+0x59>
    4fb0:	48 83 c2 38          	add    $0x38,%rdx
    4fb4:	48 39 d0             	cmp    %rdx,%rax
    4fb7:	74 27                	je     4fe0 <get_aligned_enclave_segments_size+0x80>
    4fb9:	83 3a 01             	cmpl   $0x1,(%rdx)
    4fbc:	75 f2                	jne    4fb0 <get_aligned_enclave_segments_size+0x50>
    4fbe:	48 8b 4a 10          	mov    0x10(%rdx),%rcx
    4fc2:	48 39 ce             	cmp    %rcx,%rsi
    4fc5:	73 e9                	jae    4fb0 <get_aligned_enclave_segments_size+0x50>
    4fc7:	48 89 d7             	mov    %rdx,%rdi
    4fca:	48 83 c2 38          	add    $0x38,%rdx
    4fce:	48 89 ce             	mov    %rcx,%rsi
    4fd1:	48 39 d0             	cmp    %rdx,%rax
    4fd4:	75 e3                	jne    4fb9 <get_aligned_enclave_segments_size+0x59>
    4fd6:	66 2e 0f 1f 84 00 00 	cs nopw 0x0(%rax,%rax,1)
    4fdd:	00 00 00 
    4fe0:	31 c0                	xor    %eax,%eax
    4fe2:	48 85 ff             	test   %rdi,%rdi
    4fe5:	74 19                	je     5000 <get_aligned_enclave_segments_size+0xa0>
    4fe7:	48 8b 47 28          	mov    0x28(%rdi),%rax
    4feb:	48 03 47 10          	add    0x10(%rdi),%rax
    4fef:	48 05 ff 0f 00 00    	add    $0xfff,%rax
    4ff5:	48 25 00 f0 ff ff    	and    $0xfffffffffffff000,%rax
    4ffb:	c3                   	ret
    4ffc:	0f 1f 40 00          	nopl   0x0(%rax)
    5000:	c3                   	ret
    5001:	31 c0                	xor    %eax,%eax
    5003:	c3                   	ret
    5004:	66 2e 0f 1f 84 00 00 	cs nopw 0x0(%rax,%rax,1)
    500b:	00 00 00 
    500e:	66 90                	xchg   %ax,%ax

0000000000005010 <elf_tls_info>:
    5010:	f3 0f 1e fa          	endbr64
    5014:	49 89 f0             	mov    %rsi,%r8
    5017:	48 89 f9             	mov    %rdi,%rcx
    501a:	48 89 d6             	mov    %rdx,%rsi
    501d:	b8 ff ff ff ff       	mov    $0xffffffff,%eax
    5022:	48 85 ff             	test   %rdi,%rdi
    5025:	74 7e                	je     50a5 <elf_tls_info+0x95>
    5027:	81 3f 7f 45 4c 46    	cmpl   $0x464c457f,(%rdi)
    502d:	75 75                	jne    50a4 <elf_tls_info+0x94>
    502f:	66 83 7f 10 03       	cmpw   $0x3,0x10(%rdi)
    5034:	75 6e                	jne    50a4 <elf_tls_info+0x94>
    5036:	48 8b 47 20          	mov    0x20(%rdi),%rax
    503a:	48 01 f8             	add    %rdi,%rax
    503d:	4d 85 c0             	test   %r8,%r8
    5040:	0f 94 c2             	sete   %dl
    5043:	48 85 f6             	test   %rsi,%rsi
    5046:	40 0f 94 c7          	sete   %dil
    504a:	40 08 fa             	or     %dil,%dl
    504d:	75 50                	jne    509f <elf_tls_info+0x8f>
    504f:	48 85 c0             	test   %rax,%rax
    5052:	74 4b                	je     509f <elf_tls_info+0x8f>
    5054:	0f b7 79 38          	movzwl 0x38(%rcx),%edi
    5058:	49 c7 00 00 00 00 00 	movq   $0x0,(%r8)
    505f:	48 c7 06 00 00 00 00 	movq   $0x0,(%rsi)
    5066:	66 85 ff             	test   %di,%di
    5069:	74 31                	je     509c <elf_tls_info+0x8c>
    506b:	83 ef 01             	sub    $0x1,%edi
    506e:	48 8d 14 fd 00 00 00 	lea    0x0(,%rdi,8),%rdx
    5075:	00 
    5076:	48 29 fa             	sub    %rdi,%rdx
    5079:	48 8d 54 d0 38       	lea    0x38(%rax,%rdx,8),%rdx
    507e:	eb 09                	jmp    5089 <elf_tls_info+0x79>
    5080:	48 83 c0 38          	add    $0x38,%rax
    5084:	48 39 d0             	cmp    %rdx,%rax
    5087:	74 13                	je     509c <elf_tls_info+0x8c>
    5089:	83 38 07             	cmpl   $0x7,(%rax)
    508c:	75 f2                	jne    5080 <elf_tls_info+0x70>
    508e:	48 03 48 10          	add    0x10(%rax),%rcx
    5092:	49 89 08             	mov    %rcx,(%r8)
    5095:	48 8b 40 20          	mov    0x20(%rax),%rax
    5099:	48 89 06             	mov    %rax,(%rsi)
    509c:	31 c0                	xor    %eax,%eax
    509e:	c3                   	ret
    509f:	b8 ff ff ff ff       	mov    $0xffffffff,%eax
    50a4:	c3                   	ret
    50a5:	c3                   	ret
    50a6:	66 2e 0f 1f 84 00 00 	cs nopw 0x0(%rax,%rax,1)
    50ad:	00 00 00 

00000000000050b0 <elf_get_init_array>:
    50b0:	f3 0f 1e fa          	endbr64
    50b4:	49 89 f8             	mov    %rdi,%r8
    50b7:	49 89 f1             	mov    %rsi,%r9
    50ba:	49 89 d2             	mov    %rdx,%r10
    50bd:	b8 ff ff ff ff       	mov    $0xffffffff,%eax
    50c2:	48 85 ff             	test   %rdi,%rdi
    50c5:	0f 84 c8 00 00 00    	je     5193 <elf_get_init_array+0xe3>
    50cb:	81 3f 7f 45 4c 46    	cmpl   $0x464c457f,(%rdi)
    50d1:	0f 85 b6 00 00 00    	jne    518d <elf_get_init_array+0xdd>
    50d7:	66 83 7f 10 03       	cmpw   $0x3,0x10(%rdi)
    50dc:	0f 85 ab 00 00 00    	jne    518d <elf_get_init_array+0xdd>
    50e2:	48 8b 57 20          	mov    0x20(%rdi),%rdx
    50e6:	48 01 fa             	add    %rdi,%rdx
    50e9:	48 85 f6             	test   %rsi,%rsi
    50ec:	0f 94 c0             	sete   %al
    50ef:	4d 85 d2             	test   %r10,%r10
    50f2:	0f 94 c1             	sete   %cl
    50f5:	08 c8                	or     %cl,%al
    50f7:	0f 85 8b 00 00 00    	jne    5188 <elf_get_init_array+0xd8>
    50fd:	48 85 d2             	test   %rdx,%rdx
    5100:	0f 84 82 00 00 00    	je     5188 <elf_get_init_array+0xd8>
    5106:	0f b7 4f 38          	movzwl 0x38(%rdi),%ecx
    510a:	48 c7 06 00 00 00 00 	movq   $0x0,(%rsi)
    5111:	49 c7 02 00 00 00 00 	movq   $0x0,(%r10)
    5118:	66 85 c9             	test   %cx,%cx
    511b:	74 73                	je     5190 <elf_get_init_array+0xe0>
    511d:	83 e9 01             	sub    $0x1,%ecx
    5120:	48 8d 04 cd 00 00 00 	lea    0x0(,%rcx,8),%rax
    5127:	00 
    5128:	48 29 c8             	sub    %rcx,%rax
    512b:	48 8d 7c c2 38       	lea    0x38(%rdx,%rax,8),%rdi
    5130:	eb 0f                	jmp    5141 <elf_get_init_array+0x91>
    5132:	66 0f 1f 44 00 00    	nopw   0x0(%rax,%rax,1)
    5138:	48 83 c2 38          	add    $0x38,%rdx
    513c:	48 39 fa             	cmp    %rdi,%rdx
    513f:	74 4f                	je     5190 <elf_get_init_array+0xe0>
    5141:	83 3a 02             	cmpl   $0x2,(%rdx)
    5144:	75 f2                	jne    5138 <elf_get_init_array+0x88>
    5146:	48 8b 42 18          	mov    0x18(%rdx),%rax
    514a:	48 8b 72 20          	mov    0x20(%rdx),%rsi
    514e:	4c 01 c0             	add    %r8,%rax
    5151:	48 c1 ee 04          	shr    $0x4,%rsi
    5155:	74 e1                	je     5138 <elf_get_init_array+0x88>
    5157:	48 c1 e6 04          	shl    $0x4,%rsi
    515b:	48 01 c6             	add    %rax,%rsi
    515e:	eb 16                	jmp    5176 <elf_get_init_array+0xc6>
    5160:	48 83 f9 1b          	cmp    $0x1b,%rcx
    5164:	75 07                	jne    516d <elf_get_init_array+0xbd>
    5166:	48 8b 48 08          	mov    0x8(%rax),%rcx
    516a:	49 89 0a             	mov    %rcx,(%r10)
    516d:	48 83 c0 10          	add    $0x10,%rax
    5171:	48 39 c6             	cmp    %rax,%rsi
    5174:	74 c2                	je     5138 <elf_get_init_array+0x88>
    5176:	48 8b 08             	mov    (%rax),%rcx
    5179:	48 83 f9 19          	cmp    $0x19,%rcx
    517d:	75 e1                	jne    5160 <elf_get_init_array+0xb0>
    517f:	48 8b 48 08          	mov    0x8(%rax),%rcx
    5183:	49 89 09             	mov    %rcx,(%r9)
    5186:	eb e5                	jmp    516d <elf_get_init_array+0xbd>
    5188:	b8 ff ff ff ff       	mov    $0xffffffff,%eax
    518d:	c3                   	ret
    518e:	66 90                	xchg   %ax,%ax
    5190:	31 c0                	xor    %eax,%eax
    5192:	c3                   	ret
    5193:	c3                   	ret
    5194:	66 2e 0f 1f 84 00 00 	cs nopw 0x0(%rax,%rax,1)
    519b:	00 00 00 
    519e:	66 90                	xchg   %ax,%ax

00000000000051a0 <elf_get_uninit_array>:
    51a0:	f3 0f 1e fa          	endbr64
    51a4:	49 89 f8             	mov    %rdi,%r8
    51a7:	49 89 f1             	mov    %rsi,%r9
    51aa:	49 89 d2             	mov    %rdx,%r10
    51ad:	b8 ff ff ff ff       	mov    $0xffffffff,%eax
    51b2:	48 85 ff             	test   %rdi,%rdi
    51b5:	0f 84 c8 00 00 00    	je     5283 <elf_get_uninit_array+0xe3>
    51bb:	81 3f 7f 45 4c 46    	cmpl   $0x464c457f,(%rdi)
    51c1:	0f 85 b6 00 00 00    	jne    527d <elf_get_uninit_array+0xdd>
    51c7:	66 83 7f 10 03       	cmpw   $0x3,0x10(%rdi)
    51cc:	0f 85 ab 00 00 00    	jne    527d <elf_get_uninit_array+0xdd>
    51d2:	48 8b 57 20          	mov    0x20(%rdi),%rdx
    51d6:	48 01 fa             	add    %rdi,%rdx
    51d9:	48 85 f6             	test   %rsi,%rsi
    51dc:	0f 94 c0             	sete   %al
    51df:	4d 85 d2             	test   %r10,%r10
    51e2:	0f 94 c1             	sete   %cl
    51e5:	08 c8                	or     %cl,%al
    51e7:	0f 85 8b 00 00 00    	jne    5278 <elf_get_uninit_array+0xd8>
    51ed:	48 85 d2             	test   %rdx,%rdx
    51f0:	0f 84 82 00 00 00    	je     5278 <elf_get_uninit_array+0xd8>
    51f6:	0f b7 4f 38          	movzwl 0x38(%rdi),%ecx
    51fa:	48 c7 06 00 00 00 00 	movq   $0x0,(%rsi)
    5201:	49 c7 02 00 00 00 00 	movq   $0x0,(%r10)
    5208:	66 85 c9             	test   %cx,%cx
    520b:	74 73                	je     5280 <elf_get_uninit_array+0xe0>
    520d:	83 e9 01             	sub    $0x1,%ecx
    5210:	48 8d 04 cd 00 00 00 	lea    0x0(,%rcx,8),%rax
    5217:	00 
    5218:	48 29 c8             	sub    %rcx,%rax
    521b:	48 8d 7c c2 38       	lea    0x38(%rdx,%rax,8),%rdi
    5220:	eb 0f                	jmp    5231 <elf_get_uninit_array+0x91>
    5222:	66 0f 1f 44 00 00    	nopw   0x0(%rax,%rax,1)
    5228:	48 83 c2 38          	add    $0x38,%rdx
    522c:	48 39 fa             	cmp    %rdi,%rdx
    522f:	74 4f                	je     5280 <elf_get_uninit_array+0xe0>
    5231:	83 3a 02             	cmpl   $0x2,(%rdx)
    5234:	75 f2                	jne    5228 <elf_get_uninit_array+0x88>
    5236:	48 8b 42 18          	mov    0x18(%rdx),%rax
    523a:	48 8b 72 20          	mov    0x20(%rdx),%rsi
    523e:	4c 01 c0             	add    %r8,%rax
    5241:	48 c1 ee 04          	shr    $0x4,%rsi
    5245:	74 e1                	je     5228 <elf_get_uninit_array+0x88>
    5247:	48 c1 e6 04          	shl    $0x4,%rsi
    524b:	48 01 c6             	add    %rax,%rsi
    524e:	eb 16                	jmp    5266 <elf_get_uninit_array+0xc6>
    5250:	48 83 f9 1c          	cmp    $0x1c,%rcx
    5254:	75 07                	jne    525d <elf_get_uninit_array+0xbd>
    5256:	48 8b 48 08          	mov    0x8(%rax),%rcx
    525a:	49 89 0a             	mov    %rcx,(%r10)
    525d:	48 83 c0 10          	add    $0x10,%rax
    5261:	48 39 c6             	cmp    %rax,%rsi
    5264:	74 c2                	je     5228 <elf_get_uninit_array+0x88>
    5266:	48 8b 08             	mov    (%rax),%rcx
    5269:	48 83 f9 1a          	cmp    $0x1a,%rcx
    526d:	75 e1                	jne    5250 <elf_get_uninit_array+0xb0>
    526f:	48 8b 48 08          	mov    0x8(%rax),%rcx
    5273:	49 89 09             	mov    %rcx,(%r9)
    5276:	eb e5                	jmp    525d <elf_get_uninit_array+0xbd>
    5278:	b8 ff ff ff ff       	mov    $0xffffffff,%eax
    527d:	c3                   	ret
    527e:	66 90                	xchg   %ax,%ax
    5280:	31 c0                	xor    %eax,%eax
    5282:	c3                   	ret
    5283:	c3                   	ret
    5284:	66 2e 0f 1f 84 00 00 	cs nopw 0x0(%rax,%rax,1)
    528b:	00 00 00 
    528e:	66 90                	xchg   %ax,%ax

0000000000005290 <is_shared_object>:
    5290:	f3 0f 1e fa          	endbr64
    5294:	31 c0                	xor    %eax,%eax
    5296:	48 85 ff             	test   %rdi,%rdi
    5299:	74 1d                	je     52b8 <is_shared_object+0x28>
    529b:	81 3f 7f 45 4c 46    	cmpl   $0x464c457f,(%rdi)
    52a1:	75 15                	jne    52b8 <is_shared_object+0x28>
    52a3:	66 83 7f 10 03       	cmpw   $0x3,0x10(%rdi)
    52a8:	75 0e                	jne    52b8 <is_shared_object+0x28>
    52aa:	31 c0                	xor    %eax,%eax
    52ac:	48 03 7f 20          	add    0x20(%rdi),%rdi
    52b0:	0f 95 c0             	setne  %al
    52b3:	c3                   	ret
    52b4:	0f 1f 40 00          	nopl   0x0(%rax)
    52b8:	c3                   	ret
    52b9:	0f 1f 80 00 00 00 00 	nopl   0x0(%rax)

00000000000052c0 <__relocate_fips_module>:
    52c0:	f3 0f 1e fa          	endbr64
    52c4:	31 c0                	xor    %eax,%eax
    52c6:	c3                   	ret
    52c7:	66 0f 1f 84 00 00 00 	nopw   0x0(%rax,%rax,1)
    52ce:	00 00 

00000000000052d0 <change_protection>:
    52d0:	f3 0f 1e fa          	endbr64
    52d4:	48 85 ff             	test   %rdi,%rdi
    52d7:	0f 84 be 01 00 00    	je     549b <change_protection+0x1cb>
    52dd:	41 56                	push   %r14
    52df:	41 55                	push   %r13
    52e1:	49 89 fd             	mov    %rdi,%r13
    52e4:	41 54                	push   %r12
    52e6:	55                   	push   %rbp
    52e7:	53                   	push   %rbx
    52e8:	81 3f 7f 45 4c 46    	cmpl   $0x464c457f,(%rdi)
    52ee:	0f 85 bc 00 00 00    	jne    53b0 <change_protection+0xe0>
    52f4:	66 83 7f 10 03       	cmpw   $0x3,0x10(%rdi)
    52f9:	0f 85 b1 00 00 00    	jne    53b0 <change_protection+0xe0>
    52ff:	48 89 fb             	mov    %rdi,%rbx
    5302:	48 03 5f 20          	add    0x20(%rdi),%rbx
    5306:	0f 84 a4 00 00 00    	je     53b0 <change_protection+0xe0>
    530c:	0f b7 57 38          	movzwl 0x38(%rdi),%edx
    5310:	48 89 de             	mov    %rbx,%rsi
    5313:	89 d1                	mov    %edx,%ecx
    5315:	e8 c6 f7 ff ff       	call   4ae0 <has_text_relo>
    531a:	41 89 c6             	mov    %eax,%r14d
    531d:	66 85 c9             	test   %cx,%cx
    5320:	0f 84 ea 00 00 00    	je     5410 <change_protection+0x140>
    5326:	49 bc ff ff ff ff 02 	movabs $0x2ffffffff,%r12
    532d:	00 00 00 
    5330:	31 ed                	xor    %ebp,%ebp
    5332:	eb 18                	jmp    534c <change_protection+0x7c>
    5334:	0f 1f 40 00          	nopl   0x0(%rax)
    5338:	41 0f b7 45 38       	movzwl 0x38(%r13),%eax
    533d:	83 c5 01             	add    $0x1,%ebp
    5340:	48 83 c3 38          	add    $0x38,%rbx
    5344:	39 c5                	cmp    %eax,%ebp
    5346:	0f 83 c4 00 00 00    	jae    5410 <change_protection+0x140>
    534c:	45 85 f6             	test   %r14d,%r14d
    534f:	74 0c                	je     535d <change_protection+0x8d>
    5351:	48 8b 03             	mov    (%rbx),%rax
    5354:	4c 21 e0             	and    %r12,%rax
    5357:	48 83 f8 01          	cmp    $0x1,%rax
    535b:	74 63                	je     53c0 <change_protection+0xf0>
    535d:	81 3b 52 e5 74 64    	cmpl   $0x6474e552,(%rbx)
    5363:	75 d3                	jne    5338 <change_protection+0x68>
